
R9MM_bootloader.elf:     file format elf32-littlearm

Sections:
Idx Name          Size      VMA       LMA       File off  Algn
  0 .isr_vector   0000010c  08000000  08000000  00010000  2**0
                  CONTENTS, ALLOC, LOAD, READONLY, DATA
  1 .text         00001678  0800010c  0800010c  0001010c  2**2
                  CONTENTS, ALLOC, LOAD, READONLY, CODE
  2 .rodata       000001c8  08001784  08001784  00011784  2**0
                  CONTENTS, ALLOC, LOAD, READONLY, DATA
  3 .init_array   00000004  0800194c  0800194c  0001194c  2**2
                  CONTENTS, ALLOC, LOAD, DATA
  4 .fini_array   00000004  08001950  08001950  00011950  2**2
                  CONTENTS, ALLOC, LOAD, DATA
  5 .data         00000010  20000000  08001954  00020000  2**2
                  CONTENTS, ALLOC, LOAD, DATA
  6 .bss          00000088  20000010  08001964  00020010  2**3
                  ALLOC
  7 ._user_heap_stack 00000600  20000098  08001964  00020098  2**0
                  ALLOC
  8 .ARM.attributes 00000029  00000000  00000000  00020010  2**0
                  CONTENTS, READONLY
  9 .comment      0000007c  00000000  00000000  00020039  2**0
                  CONTENTS, READONLY
 10 .debug_frame  0000004c  00000000  00000000  000200b8  2**2
                  CONTENTS, READONLY, DEBUGGING

Disassembly of section .text:

0800010c <__do_global_dtors_aux>:
 800010c:	b510      	push	{r4, lr}
 800010e:	4c05      	ldr	r4, [pc, #20]	; (8000124 <__do_global_dtors_aux+0x18>)
 8000110:	7823      	ldrb	r3, [r4, #0]
 8000112:	b933      	cbnz	r3, 8000122 <__do_global_dtors_aux+0x16>
 8000114:	4b04      	ldr	r3, [pc, #16]	; (8000128 <__do_global_dtors_aux+0x1c>)
 8000116:	b113      	cbz	r3, 800011e <__do_global_dtors_aux+0x12>
 8000118:	4804      	ldr	r0, [pc, #16]	; (800012c <__do_global_dtors_aux+0x20>)
 800011a:	f3af 8000 	nop.w
 800011e:	2301      	movs	r3, #1
 8000120:	7023      	strb	r3, [r4, #0]
 8000122:	bd10      	pop	{r4, pc}
 8000124:	20000010 	.word	0x20000010
 8000128:	00000000 	.word	0x00000000
 800012c:	0800176c 	.word	0x0800176c

08000130 <frame_dummy>:
 8000130:	b508      	push	{r3, lr}
 8000132:	4b03      	ldr	r3, [pc, #12]	; (8000140 <frame_dummy+0x10>)
 8000134:	b11b      	cbz	r3, 800013e <frame_dummy+0xe>
 8000136:	4903      	ldr	r1, [pc, #12]	; (8000144 <frame_dummy+0x14>)
 8000138:	4803      	ldr	r0, [pc, #12]	; (8000148 <frame_dummy+0x18>)
 800013a:	f3af 8000 	nop.w
 800013e:	bd08      	pop	{r3, pc}
 8000140:	00000000 	.word	0x00000000
 8000144:	20000014 	.word	0x20000014
 8000148:	0800176c 	.word	0x0800176c

0800014c <__aeabi_llsr>:
 800014c:	40d0      	lsrs	r0, r2
 800014e:	1c0b      	adds	r3, r1, #0
 8000150:	40d1      	lsrs	r1, r2
 8000152:	469c      	mov	ip, r3
 8000154:	3a20      	subs	r2, #32
 8000156:	40d3      	lsrs	r3, r2
 8000158:	4318      	orrs	r0, r3
 800015a:	4252      	negs	r2, r2
 800015c:	4663      	mov	r3, ip
 800015e:	4093      	lsls	r3, r2
 8000160:	4318      	orrs	r0, r3
 8000162:	4770      	bx	lr

08000164 <HAL_MspDeInit>:
 8000164:	4770      	bx	lr
	...

08000168 <HAL_DeInit>:
 8000168:	b510      	push	{r4, lr}
 800016a:	f04f 32ff 	mov.w	r2, #4294967295
 800016e:	2400      	movs	r4, #0
 8000170:	4b04      	ldr	r3, [pc, #16]	; (8000184 <HAL_DeInit+0x1c>)
 8000172:	60da      	str	r2, [r3, #12]
 8000174:	611c      	str	r4, [r3, #16]
 8000176:	60da      	str	r2, [r3, #12]
 8000178:	60dc      	str	r4, [r3, #12]
 800017a:	f7ff fff3 	bl	8000164 <HAL_MspDeInit>
 800017e:	4620      	mov	r0, r4
 8000180:	bd10      	pop	{r4, pc}
 8000182:	bf00      	nop
 8000184:	40021000 	.word	0x40021000

08000188 <HAL_InitTick>:
 8000188:	b538      	push	{r3, r4, r5, lr}
 800018a:	4b0e      	ldr	r3, [pc, #56]	; (80001c4 <HAL_InitTick+0x3c>)
 800018c:	4605      	mov	r5, r0
 800018e:	7818      	ldrb	r0, [r3, #0]
 8000190:	f44f 737a 	mov.w	r3, #1000	; 0x3e8
 8000194:	fbb3 f3f0 	udiv	r3, r3, r0
 8000198:	4a0b      	ldr	r2, [pc, #44]	; (80001c8 <HAL_InitTick+0x40>)
 800019a:	6810      	ldr	r0, [r2, #0]
 800019c:	fbb0 f0f3 	udiv	r0, r0, r3
 80001a0:	f000 f892 	bl	80002c8 <HAL_SYSTICK_Config>
 80001a4:	4604      	mov	r4, r0
 80001a6:	b958      	cbnz	r0, 80001c0 <HAL_InitTick+0x38>
 80001a8:	2d0f      	cmp	r5, #15
 80001aa:	d809      	bhi.n	80001c0 <HAL_InitTick+0x38>
 80001ac:	4602      	mov	r2, r0
 80001ae:	4629      	mov	r1, r5
 80001b0:	f04f 30ff 	mov.w	r0, #4294967295
 80001b4:	f000 f854 	bl	8000260 <HAL_NVIC_SetPriority>
 80001b8:	4b04      	ldr	r3, [pc, #16]	; (80001cc <HAL_InitTick+0x44>)
 80001ba:	4620      	mov	r0, r4
 80001bc:	601d      	str	r5, [r3, #0]
 80001be:	bd38      	pop	{r3, r4, r5, pc}
 80001c0:	2001      	movs	r0, #1
 80001c2:	bd38      	pop	{r3, r4, r5, pc}
 80001c4:	20000000 	.word	0x20000000
 80001c8:	20000008 	.word	0x20000008
 80001cc:	20000004 	.word	0x20000004

080001d0 <HAL_Init>:
 80001d0:	4a07      	ldr	r2, [pc, #28]	; (80001f0 <HAL_Init+0x20>)
 80001d2:	b508      	push	{r3, lr}
 80001d4:	6813      	ldr	r3, [r2, #0]
 80001d6:	2003      	movs	r0, #3
 80001d8:	f043 0310 	orr.w	r3, r3, #16
 80001dc:	6013      	str	r3, [r2, #0]
 80001de:	f000 f82d 	bl	800023c <HAL_NVIC_SetPriorityGrouping>
 80001e2:	2000      	movs	r0, #0
 80001e4:	f7ff ffd0 	bl	8000188 <HAL_InitTick>
 80001e8:	f001 f856 	bl	8001298 <HAL_MspInit>
 80001ec:	2000      	movs	r0, #0
 80001ee:	bd08      	pop	{r3, pc}
 80001f0:	40022000 	.word	0x40022000

080001f4 <HAL_IncTick>:
 80001f4:	4a03      	ldr	r2, [pc, #12]	; (8000204 <HAL_IncTick+0x10>)
 80001f6:	4b04      	ldr	r3, [pc, #16]	; (8000208 <HAL_IncTick+0x14>)
 80001f8:	6811      	ldr	r1, [r2, #0]
 80001fa:	781b      	ldrb	r3, [r3, #0]
 80001fc:	440b      	add	r3, r1
 80001fe:	6013      	str	r3, [r2, #0]
 8000200:	4770      	bx	lr
 8000202:	bf00      	nop
 8000204:	20000034 	.word	0x20000034
 8000208:	20000000 	.word	0x20000000

0800020c <HAL_GetTick>:
 800020c:	4b01      	ldr	r3, [pc, #4]	; (8000214 <HAL_GetTick+0x8>)
 800020e:	6818      	ldr	r0, [r3, #0]
 8000210:	4770      	bx	lr
 8000212:	bf00      	nop
 8000214:	20000034 	.word	0x20000034

08000218 <HAL_Delay>:
 8000218:	b538      	push	{r3, r4, r5, lr}
 800021a:	4604      	mov	r4, r0
 800021c:	f7ff fff6 	bl	800020c <HAL_GetTick>
 8000220:	4605      	mov	r5, r0
 8000222:	1c63      	adds	r3, r4, #1
 8000224:	bf1e      	ittt	ne
 8000226:	4b04      	ldrne	r3, [pc, #16]	; (8000238 <HAL_Delay+0x20>)
 8000228:	781b      	ldrbne	r3, [r3, #0]
 800022a:	18e4      	addne	r4, r4, r3
 800022c:	f7ff ffee 	bl	800020c <HAL_GetTick>
 8000230:	1b40      	subs	r0, r0, r5
 8000232:	4284      	cmp	r4, r0
 8000234:	d8fa      	bhi.n	800022c <HAL_Delay+0x14>
 8000236:	bd38      	pop	{r3, r4, r5, pc}
 8000238:	20000000 	.word	0x20000000

0800023c <HAL_NVIC_SetPriorityGrouping>:
 800023c:	4a07      	ldr	r2, [pc, #28]	; (800025c <HAL_NVIC_SetPriorityGrouping+0x20>)
 800023e:	0200      	lsls	r0, r0, #8
 8000240:	68d3      	ldr	r3, [r2, #12]
 8000242:	f400 60e0 	and.w	r0, r0, #1792	; 0x700
 8000246:	f423 63e0 	bic.w	r3, r3, #1792	; 0x700
 800024a:	041b      	lsls	r3, r3, #16
 800024c:	0c1b      	lsrs	r3, r3, #16
 800024e:	f043 63bf 	orr.w	r3, r3, #100139008	; 0x5f80000
 8000252:	f443 3300 	orr.w	r3, r3, #131072	; 0x20000
 8000256:	4303      	orrs	r3, r0
 8000258:	60d3      	str	r3, [r2, #12]
 800025a:	4770      	bx	lr
 800025c:	e000ed00 	.word	0xe000ed00

08000260 <HAL_NVIC_SetPriority>:
 8000260:	4b17      	ldr	r3, [pc, #92]	; (80002c0 <HAL_NVIC_SetPriority+0x60>)
 8000262:	b530      	push	{r4, r5, lr}
 8000264:	68dc      	ldr	r4, [r3, #12]
 8000266:	f3c4 2402 	ubfx	r4, r4, #8, #3
 800026a:	f1c4 0307 	rsb	r3, r4, #7
 800026e:	1d25      	adds	r5, r4, #4
 8000270:	2b04      	cmp	r3, #4
 8000272:	bf28      	it	cs
 8000274:	2304      	movcs	r3, #4
 8000276:	2d06      	cmp	r5, #6
 8000278:	f04f 0501 	mov.w	r5, #1
 800027c:	bf98      	it	ls
 800027e:	2400      	movls	r4, #0
 8000280:	fa05 f303 	lsl.w	r3, r5, r3
 8000284:	f103 33ff 	add.w	r3, r3, #4294967295
 8000288:	bf88      	it	hi
 800028a:	3c03      	subhi	r4, #3
 800028c:	4019      	ands	r1, r3
 800028e:	40a1      	lsls	r1, r4
 8000290:	fa05 f404 	lsl.w	r4, r5, r4
 8000294:	3c01      	subs	r4, #1
 8000296:	4022      	ands	r2, r4
 8000298:	2800      	cmp	r0, #0
 800029a:	ea42 0201 	orr.w	r2, r2, r1
 800029e:	ea4f 1202 	mov.w	r2, r2, lsl #4
 80002a2:	bfa9      	itett	ge
 80002a4:	f100 4060 	addge.w	r0, r0, #3758096384	; 0xe0000000
 80002a8:	4b06      	ldrlt	r3, [pc, #24]	; (80002c4 <HAL_NVIC_SetPriority+0x64>)
 80002aa:	b2d2      	uxtbge	r2, r2
 80002ac:	f500 4061 	addge.w	r0, r0, #57600	; 0xe100
 80002b0:	bfbb      	ittet	lt
 80002b2:	f000 000f 	andlt.w	r0, r0, #15
 80002b6:	b2d2      	uxtblt	r2, r2
 80002b8:	f880 2300 	strbge.w	r2, [r0, #768]	; 0x300
 80002bc:	541a      	strblt	r2, [r3, r0]
 80002be:	bd30      	pop	{r4, r5, pc}
 80002c0:	e000ed00 	.word	0xe000ed00
 80002c4:	e000ed14 	.word	0xe000ed14

080002c8 <HAL_SYSTICK_Config>:
 80002c8:	3801      	subs	r0, #1
 80002ca:	f1b0 7f80 	cmp.w	r0, #16777216	; 0x1000000
 80002ce:	d20a      	bcs.n	80002e6 <HAL_SYSTICK_Config+0x1e>
 80002d0:	21f0      	movs	r1, #240	; 0xf0
 80002d2:	4b06      	ldr	r3, [pc, #24]	; (80002ec <HAL_SYSTICK_Config+0x24>)
 80002d4:	4a06      	ldr	r2, [pc, #24]	; (80002f0 <HAL_SYSTICK_Config+0x28>)
 80002d6:	6058      	str	r0, [r3, #4]
 80002d8:	f882 1023 	strb.w	r1, [r2, #35]	; 0x23
 80002dc:	2000      	movs	r0, #0
 80002de:	2207      	movs	r2, #7
 80002e0:	6098      	str	r0, [r3, #8]
 80002e2:	601a      	str	r2, [r3, #0]
 80002e4:	4770      	bx	lr
 80002e6:	2001      	movs	r0, #1
 80002e8:	4770      	bx	lr
 80002ea:	bf00      	nop
 80002ec:	e000e010 	.word	0xe000e010
 80002f0:	e000ed00 	.word	0xe000ed00

080002f4 <HAL_DMA_Abort>:
 80002f4:	f890 3021 	ldrb.w	r3, [r0, #33]	; 0x21
 80002f8:	2b02      	cmp	r3, #2
 80002fa:	d006      	beq.n	800030a <HAL_DMA_Abort+0x16>
 80002fc:	2304      	movs	r3, #4
 80002fe:	6383      	str	r3, [r0, #56]	; 0x38
 8000300:	2300      	movs	r3, #0
 8000302:	f880 3020 	strb.w	r3, [r0, #32]
 8000306:	2001      	movs	r0, #1
 8000308:	4770      	bx	lr
 800030a:	6803      	ldr	r3, [r0, #0]
 800030c:	6bc1      	ldr	r1, [r0, #60]	; 0x3c
 800030e:	681a      	ldr	r2, [r3, #0]
 8000310:	f022 020e 	bic.w	r2, r2, #14
 8000314:	601a      	str	r2, [r3, #0]
 8000316:	681a      	ldr	r2, [r3, #0]
 8000318:	f022 0201 	bic.w	r2, r2, #1
 800031c:	601a      	str	r2, [r3, #0]
 800031e:	2201      	movs	r2, #1
 8000320:	6c03      	ldr	r3, [r0, #64]	; 0x40
 8000322:	fa02 f303 	lsl.w	r3, r2, r3
 8000326:	604b      	str	r3, [r1, #4]
 8000328:	2300      	movs	r3, #0
 800032a:	f880 2021 	strb.w	r2, [r0, #33]	; 0x21
 800032e:	f880 3020 	strb.w	r3, [r0, #32]
 8000332:	4618      	mov	r0, r3
 8000334:	4770      	bx	lr

08000336 <HAL_DMA_GetError>:
 8000336:	6b80      	ldr	r0, [r0, #56]	; 0x38
 8000338:	4770      	bx	lr
	...

0800033c <FLASH_SetErrorCode>:
 800033c:	4a11      	ldr	r2, [pc, #68]	; (8000384 <FLASH_SetErrorCode+0x48>)
 800033e:	68d3      	ldr	r3, [r2, #12]
 8000340:	f013 0310 	ands.w	r3, r3, #16
 8000344:	d005      	beq.n	8000352 <FLASH_SetErrorCode+0x16>
 8000346:	4910      	ldr	r1, [pc, #64]	; (8000388 <FLASH_SetErrorCode+0x4c>)
 8000348:	69cb      	ldr	r3, [r1, #28]
 800034a:	f043 0302 	orr.w	r3, r3, #2
 800034e:	61cb      	str	r3, [r1, #28]
 8000350:	2310      	movs	r3, #16
 8000352:	68d2      	ldr	r2, [r2, #12]
 8000354:	0750      	lsls	r0, r2, #29
 8000356:	d506      	bpl.n	8000366 <FLASH_SetErrorCode+0x2a>
 8000358:	490b      	ldr	r1, [pc, #44]	; (8000388 <FLASH_SetErrorCode+0x4c>)
 800035a:	f043 0304 	orr.w	r3, r3, #4
 800035e:	69ca      	ldr	r2, [r1, #28]
 8000360:	f042 0201 	orr.w	r2, r2, #1
 8000364:	61ca      	str	r2, [r1, #28]
 8000366:	4a07      	ldr	r2, [pc, #28]	; (8000384 <FLASH_SetErrorCode+0x48>)
 8000368:	69d1      	ldr	r1, [r2, #28]
 800036a:	07c9      	lsls	r1, r1, #31
 800036c:	d508      	bpl.n	8000380 <FLASH_SetErrorCode+0x44>
 800036e:	4806      	ldr	r0, [pc, #24]	; (8000388 <FLASH_SetErrorCode+0x4c>)
 8000370:	69c1      	ldr	r1, [r0, #28]
 8000372:	f041 0104 	orr.w	r1, r1, #4
 8000376:	61c1      	str	r1, [r0, #28]
 8000378:	69d1      	ldr	r1, [r2, #28]
 800037a:	f021 0101 	bic.w	r1, r1, #1
 800037e:	61d1      	str	r1, [r2, #28]
 8000380:	60d3      	str	r3, [r2, #12]
 8000382:	4770      	bx	lr
 8000384:	40022000 	.word	0x40022000
 8000388:	20000038 	.word	0x20000038

0800038c <HAL_FLASH_Unlock>:
 800038c:	4b06      	ldr	r3, [pc, #24]	; (80003a8 <HAL_FLASH_Unlock+0x1c>)
 800038e:	6918      	ldr	r0, [r3, #16]
 8000390:	f010 0080 	ands.w	r0, r0, #128	; 0x80
 8000394:	d007      	beq.n	80003a6 <HAL_FLASH_Unlock+0x1a>
 8000396:	4a05      	ldr	r2, [pc, #20]	; (80003ac <HAL_FLASH_Unlock+0x20>)
 8000398:	605a      	str	r2, [r3, #4]
 800039a:	f102 3288 	add.w	r2, r2, #2290649224	; 0x88888888
 800039e:	605a      	str	r2, [r3, #4]
 80003a0:	6918      	ldr	r0, [r3, #16]
 80003a2:	f3c0 10c0 	ubfx	r0, r0, #7, #1
 80003a6:	4770      	bx	lr
 80003a8:	40022000 	.word	0x40022000
 80003ac:	45670123 	.word	0x45670123

080003b0 <HAL_FLASH_Lock>:
 80003b0:	4a03      	ldr	r2, [pc, #12]	; (80003c0 <HAL_FLASH_Lock+0x10>)
 80003b2:	2000      	movs	r0, #0
 80003b4:	6913      	ldr	r3, [r2, #16]
 80003b6:	f043 0380 	orr.w	r3, r3, #128	; 0x80
 80003ba:	6113      	str	r3, [r2, #16]
 80003bc:	4770      	bx	lr
 80003be:	bf00      	nop
 80003c0:	40022000 	.word	0x40022000

080003c4 <FLASH_WaitForLastOperation>:
 80003c4:	b5f8      	push	{r3, r4, r5, r6, r7, lr}
 80003c6:	4606      	mov	r6, r0
 80003c8:	f7ff ff20 	bl	800020c <HAL_GetTick>
 80003cc:	4c11      	ldr	r4, [pc, #68]	; (8000414 <FLASH_WaitForLastOperation+0x50>)
 80003ce:	4607      	mov	r7, r0
 80003d0:	4625      	mov	r5, r4
 80003d2:	68e3      	ldr	r3, [r4, #12]
 80003d4:	07d8      	lsls	r0, r3, #31
 80003d6:	d412      	bmi.n	80003fe <FLASH_WaitForLastOperation+0x3a>
 80003d8:	68e3      	ldr	r3, [r4, #12]
 80003da:	0699      	lsls	r1, r3, #26
 80003dc:	bf44      	itt	mi
 80003de:	2320      	movmi	r3, #32
 80003e0:	60e3      	strmi	r3, [r4, #12]
 80003e2:	68eb      	ldr	r3, [r5, #12]
 80003e4:	06da      	lsls	r2, r3, #27
 80003e6:	d406      	bmi.n	80003f6 <FLASH_WaitForLastOperation+0x32>
 80003e8:	69eb      	ldr	r3, [r5, #28]
 80003ea:	07db      	lsls	r3, r3, #31
 80003ec:	d403      	bmi.n	80003f6 <FLASH_WaitForLastOperation+0x32>
 80003ee:	68e8      	ldr	r0, [r5, #12]
 80003f0:	f010 0004 	ands.w	r0, r0, #4
 80003f4:	d002      	beq.n	80003fc <FLASH_WaitForLastOperation+0x38>
 80003f6:	f7ff ffa1 	bl	800033c <FLASH_SetErrorCode>
 80003fa:	2001      	movs	r0, #1
 80003fc:	bdf8      	pop	{r3, r4, r5, r6, r7, pc}
 80003fe:	1c73      	adds	r3, r6, #1
 8000400:	d0e7      	beq.n	80003d2 <FLASH_WaitForLastOperation+0xe>
 8000402:	b90e      	cbnz	r6, 8000408 <FLASH_WaitForLastOperation+0x44>
 8000404:	2003      	movs	r0, #3
 8000406:	bdf8      	pop	{r3, r4, r5, r6, r7, pc}
 8000408:	f7ff ff00 	bl	800020c <HAL_GetTick>
 800040c:	1bc0      	subs	r0, r0, r7
 800040e:	4286      	cmp	r6, r0
 8000410:	d2df      	bcs.n	80003d2 <FLASH_WaitForLastOperation+0xe>
 8000412:	e7f7      	b.n	8000404 <FLASH_WaitForLastOperation+0x40>
 8000414:	40022000 	.word	0x40022000

08000418 <HAL_FLASH_Program>:
 8000418:	e92d 4ff8 	stmdb	sp!, {r3, r4, r5, r6, r7, r8, r9, sl, fp, lr}
 800041c:	4c1f      	ldr	r4, [pc, #124]	; (800049c <HAL_FLASH_Program+0x84>)
 800041e:	4699      	mov	r9, r3
 8000420:	7e23      	ldrb	r3, [r4, #24]
 8000422:	4605      	mov	r5, r0
 8000424:	2b01      	cmp	r3, #1
 8000426:	460f      	mov	r7, r1
 8000428:	4690      	mov	r8, r2
 800042a:	d033      	beq.n	8000494 <HAL_FLASH_Program+0x7c>
 800042c:	2301      	movs	r3, #1
 800042e:	f24c 3050 	movw	r0, #50000	; 0xc350
 8000432:	7623      	strb	r3, [r4, #24]
 8000434:	f7ff ffc6 	bl	80003c4 <FLASH_WaitForLastOperation>
 8000438:	bb40      	cbnz	r0, 800048c <HAL_FLASH_Program+0x74>
 800043a:	2d01      	cmp	r5, #1
 800043c:	d003      	beq.n	8000446 <HAL_FLASH_Program+0x2e>
 800043e:	2d02      	cmp	r5, #2
 8000440:	bf0c      	ite	eq
 8000442:	2502      	moveq	r5, #2
 8000444:	2504      	movne	r5, #4
 8000446:	2600      	movs	r6, #0
 8000448:	46b2      	mov	sl, r6
 800044a:	f8df b054 	ldr.w	fp, [pc, #84]	; 80004a0 <HAL_FLASH_Program+0x88>
 800044e:	0132      	lsls	r2, r6, #4
 8000450:	4640      	mov	r0, r8
 8000452:	4649      	mov	r1, r9
 8000454:	f7ff fe7a 	bl	800014c <__aeabi_llsr>
 8000458:	f8c4 a01c 	str.w	sl, [r4, #28]
 800045c:	f8db 3010 	ldr.w	r3, [fp, #16]
 8000460:	b280      	uxth	r0, r0
 8000462:	f043 0301 	orr.w	r3, r3, #1
 8000466:	f8cb 3010 	str.w	r3, [fp, #16]
 800046a:	f827 0016 	strh.w	r0, [r7, r6, lsl #1]
 800046e:	f24c 3050 	movw	r0, #50000	; 0xc350
 8000472:	f7ff ffa7 	bl	80003c4 <FLASH_WaitForLastOperation>
 8000476:	f8db 3010 	ldr.w	r3, [fp, #16]
 800047a:	f023 0301 	bic.w	r3, r3, #1
 800047e:	f8cb 3010 	str.w	r3, [fp, #16]
 8000482:	b918      	cbnz	r0, 800048c <HAL_FLASH_Program+0x74>
 8000484:	3601      	adds	r6, #1
 8000486:	b2f3      	uxtb	r3, r6
 8000488:	429d      	cmp	r5, r3
 800048a:	d8e0      	bhi.n	800044e <HAL_FLASH_Program+0x36>
 800048c:	2300      	movs	r3, #0
 800048e:	7623      	strb	r3, [r4, #24]
 8000490:	e8bd 8ff8 	ldmia.w	sp!, {r3, r4, r5, r6, r7, r8, r9, sl, fp, pc}
 8000494:	2002      	movs	r0, #2
 8000496:	e8bd 8ff8 	ldmia.w	sp!, {r3, r4, r5, r6, r7, r8, r9, sl, fp, pc}
 800049a:	bf00      	nop
 800049c:	20000038 	.word	0x20000038
 80004a0:	40022000 	.word	0x40022000

080004a4 <FLASH_MassErase.isra.0>:
 80004a4:	2200      	movs	r2, #0
 80004a6:	4b06      	ldr	r3, [pc, #24]	; (80004c0 <FLASH_MassErase.isra.0+0x1c>)
 80004a8:	61da      	str	r2, [r3, #28]
 80004aa:	4b06      	ldr	r3, [pc, #24]	; (80004c4 <FLASH_MassErase.isra.0+0x20>)
 80004ac:	691a      	ldr	r2, [r3, #16]
 80004ae:	f042 0204 	orr.w	r2, r2, #4
 80004b2:	611a      	str	r2, [r3, #16]
 80004b4:	691a      	ldr	r2, [r3, #16]
 80004b6:	f042 0240 	orr.w	r2, r2, #64	; 0x40
 80004ba:	611a      	str	r2, [r3, #16]
 80004bc:	4770      	bx	lr
 80004be:	bf00      	nop
 80004c0:	20000038 	.word	0x20000038
 80004c4:	40022000 	.word	0x40022000

080004c8 <FLASH_PageErase>:
 80004c8:	2200      	movs	r2, #0
 80004ca:	4b06      	ldr	r3, [pc, #24]	; (80004e4 <FLASH_PageErase+0x1c>)
 80004cc:	61da      	str	r2, [r3, #28]
 80004ce:	4b06      	ldr	r3, [pc, #24]	; (80004e8 <FLASH_PageErase+0x20>)
 80004d0:	691a      	ldr	r2, [r3, #16]
 80004d2:	f042 0202 	orr.w	r2, r2, #2
 80004d6:	611a      	str	r2, [r3, #16]
 80004d8:	6158      	str	r0, [r3, #20]
 80004da:	691a      	ldr	r2, [r3, #16]
 80004dc:	f042 0240 	orr.w	r2, r2, #64	; 0x40
 80004e0:	611a      	str	r2, [r3, #16]
 80004e2:	4770      	bx	lr
 80004e4:	20000038 	.word	0x20000038
 80004e8:	40022000 	.word	0x40022000

080004ec <HAL_FLASHEx_Erase>:
 80004ec:	e92d 41f0 	stmdb	sp!, {r4, r5, r6, r7, r8, lr}
 80004f0:	4d23      	ldr	r5, [pc, #140]	; (8000580 <HAL_FLASHEx_Erase+0x94>)
 80004f2:	4607      	mov	r7, r0
 80004f4:	7e2b      	ldrb	r3, [r5, #24]
 80004f6:	4688      	mov	r8, r1
 80004f8:	2b01      	cmp	r3, #1
 80004fa:	d03d      	beq.n	8000578 <HAL_FLASHEx_Erase+0x8c>
 80004fc:	2401      	movs	r4, #1
 80004fe:	6803      	ldr	r3, [r0, #0]
 8000500:	762c      	strb	r4, [r5, #24]
 8000502:	2b02      	cmp	r3, #2
 8000504:	f24c 3050 	movw	r0, #50000	; 0xc350
 8000508:	d113      	bne.n	8000532 <HAL_FLASHEx_Erase+0x46>
 800050a:	f7ff ff5b 	bl	80003c4 <FLASH_WaitForLastOperation>
 800050e:	b120      	cbz	r0, 800051a <HAL_FLASHEx_Erase+0x2e>
 8000510:	2001      	movs	r0, #1
 8000512:	2300      	movs	r3, #0
 8000514:	762b      	strb	r3, [r5, #24]
 8000516:	e8bd 81f0 	ldmia.w	sp!, {r4, r5, r6, r7, r8, pc}
 800051a:	f7ff ffc3 	bl	80004a4 <FLASH_MassErase.isra.0>
 800051e:	f24c 3050 	movw	r0, #50000	; 0xc350
 8000522:	f7ff ff4f 	bl	80003c4 <FLASH_WaitForLastOperation>
 8000526:	4a17      	ldr	r2, [pc, #92]	; (8000584 <HAL_FLASHEx_Erase+0x98>)
 8000528:	6913      	ldr	r3, [r2, #16]
 800052a:	f023 0304 	bic.w	r3, r3, #4
 800052e:	6113      	str	r3, [r2, #16]
 8000530:	e7ef      	b.n	8000512 <HAL_FLASHEx_Erase+0x26>
 8000532:	f7ff ff47 	bl	80003c4 <FLASH_WaitForLastOperation>
 8000536:	2800      	cmp	r0, #0
 8000538:	d1ea      	bne.n	8000510 <HAL_FLASHEx_Erase+0x24>
 800053a:	f04f 33ff 	mov.w	r3, #4294967295
 800053e:	f8c8 3000 	str.w	r3, [r8]
 8000542:	4620      	mov	r0, r4
 8000544:	68be      	ldr	r6, [r7, #8]
 8000546:	4c0f      	ldr	r4, [pc, #60]	; (8000584 <HAL_FLASHEx_Erase+0x98>)
 8000548:	68fa      	ldr	r2, [r7, #12]
 800054a:	68bb      	ldr	r3, [r7, #8]
 800054c:	eb03 2382 	add.w	r3, r3, r2, lsl #10
 8000550:	429e      	cmp	r6, r3
 8000552:	d2de      	bcs.n	8000512 <HAL_FLASHEx_Erase+0x26>
 8000554:	4630      	mov	r0, r6
 8000556:	f7ff ffb7 	bl	80004c8 <FLASH_PageErase>
 800055a:	f24c 3050 	movw	r0, #50000	; 0xc350
 800055e:	f7ff ff31 	bl	80003c4 <FLASH_WaitForLastOperation>
 8000562:	6923      	ldr	r3, [r4, #16]
 8000564:	f023 0302 	bic.w	r3, r3, #2
 8000568:	6123      	str	r3, [r4, #16]
 800056a:	b110      	cbz	r0, 8000572 <HAL_FLASHEx_Erase+0x86>
 800056c:	f8c8 6000 	str.w	r6, [r8]
 8000570:	e7cf      	b.n	8000512 <HAL_FLASHEx_Erase+0x26>
 8000572:	f506 6680 	add.w	r6, r6, #1024	; 0x400
 8000576:	e7e7      	b.n	8000548 <HAL_FLASHEx_Erase+0x5c>
 8000578:	2002      	movs	r0, #2
 800057a:	e8bd 81f0 	ldmia.w	sp!, {r4, r5, r6, r7, r8, pc}
 800057e:	bf00      	nop
 8000580:	20000038 	.word	0x20000038
 8000584:	40022000 	.word	0x40022000

08000588 <HAL_GPIO_Init>:
 8000588:	e92d 4ff7 	stmdb	sp!, {r0, r1, r2, r4, r5, r6, r7, r8, r9, sl, fp, lr}
 800058c:	2400      	movs	r4, #0
 800058e:	4626      	mov	r6, r4
 8000590:	4b66      	ldr	r3, [pc, #408]	; (800072c <HAL_GPIO_Init+0x1a4>)
 8000592:	f8df e1a8 	ldr.w	lr, [pc, #424]	; 800073c <HAL_GPIO_Init+0x1b4>
 8000596:	f8df c1a8 	ldr.w	ip, [pc, #424]	; 8000740 <HAL_GPIO_Init+0x1b8>
 800059a:	680a      	ldr	r2, [r1, #0]
 800059c:	fa32 f506 	lsrs.w	r5, r2, r6
 80005a0:	d102      	bne.n	80005a8 <HAL_GPIO_Init+0x20>
 80005a2:	b003      	add	sp, #12
 80005a4:	e8bd 8ff0 	ldmia.w	sp!, {r4, r5, r6, r7, r8, r9, sl, fp, pc}
 80005a8:	f04f 0801 	mov.w	r8, #1
 80005ac:	fa08 f806 	lsl.w	r8, r8, r6
 80005b0:	ea02 0208 	and.w	r2, r2, r8
 80005b4:	4590      	cmp	r8, r2
 80005b6:	d17f      	bne.n	80006b8 <HAL_GPIO_Init+0x130>
 80005b8:	684d      	ldr	r5, [r1, #4]
 80005ba:	2d12      	cmp	r5, #18
 80005bc:	f000 80aa 	beq.w	8000714 <HAL_GPIO_Init+0x18c>
 80005c0:	f200 8083 	bhi.w	80006ca <HAL_GPIO_Init+0x142>
 80005c4:	2d02      	cmp	r5, #2
 80005c6:	f000 80a2 	beq.w	800070e <HAL_GPIO_Init+0x186>
 80005ca:	d877      	bhi.n	80006bc <HAL_GPIO_Init+0x134>
 80005cc:	2d00      	cmp	r5, #0
 80005ce:	f000 8089 	beq.w	80006e4 <HAL_GPIO_Init+0x15c>
 80005d2:	2d01      	cmp	r5, #1
 80005d4:	f000 8099 	beq.w	800070a <HAL_GPIO_Init+0x182>
 80005d8:	f04f 090f 	mov.w	r9, #15
 80005dc:	2aff      	cmp	r2, #255	; 0xff
 80005de:	bf93      	iteet	ls
 80005e0:	4682      	movls	sl, r0
 80005e2:	f106 4580 	addhi.w	r5, r6, #1073741824	; 0x40000000
 80005e6:	3d08      	subhi	r5, #8
 80005e8:	f8d0 b000 	ldrls.w	fp, [r0]
 80005ec:	bf92      	itee	ls
 80005ee:	00b5      	lslls	r5, r6, #2
 80005f0:	f8d0 b004 	ldrhi.w	fp, [r0, #4]
 80005f4:	00ad      	lslhi	r5, r5, #2
 80005f6:	fa09 f805 	lsl.w	r8, r9, r5
 80005fa:	ea2b 0808 	bic.w	r8, fp, r8
 80005fe:	fa04 f505 	lsl.w	r5, r4, r5
 8000602:	bf88      	it	hi
 8000604:	f100 0a04 	addhi.w	sl, r0, #4
 8000608:	ea48 0505 	orr.w	r5, r8, r5
 800060c:	f8ca 5000 	str.w	r5, [sl]
 8000610:	f8d1 a004 	ldr.w	sl, [r1, #4]
 8000614:	f01a 5f80 	tst.w	sl, #268435456	; 0x10000000
 8000618:	d04e      	beq.n	80006b8 <HAL_GPIO_Init+0x130>
 800061a:	4d45      	ldr	r5, [pc, #276]	; (8000730 <HAL_GPIO_Init+0x1a8>)
 800061c:	4f44      	ldr	r7, [pc, #272]	; (8000730 <HAL_GPIO_Init+0x1a8>)
 800061e:	69ad      	ldr	r5, [r5, #24]
 8000620:	f026 0803 	bic.w	r8, r6, #3
 8000624:	f045 0501 	orr.w	r5, r5, #1
 8000628:	61bd      	str	r5, [r7, #24]
 800062a:	69bd      	ldr	r5, [r7, #24]
 800062c:	f108 4880 	add.w	r8, r8, #1073741824	; 0x40000000
 8000630:	f005 0501 	and.w	r5, r5, #1
 8000634:	9501      	str	r5, [sp, #4]
 8000636:	f508 3880 	add.w	r8, r8, #65536	; 0x10000
 800063a:	f006 0b03 	and.w	fp, r6, #3
 800063e:	9d01      	ldr	r5, [sp, #4]
 8000640:	ea4f 0b8b 	mov.w	fp, fp, lsl #2
 8000644:	f8d8 5008 	ldr.w	r5, [r8, #8]
 8000648:	fa09 f90b 	lsl.w	r9, r9, fp
 800064c:	ea25 0909 	bic.w	r9, r5, r9
 8000650:	4d38      	ldr	r5, [pc, #224]	; (8000734 <HAL_GPIO_Init+0x1ac>)
 8000652:	42a8      	cmp	r0, r5
 8000654:	d063      	beq.n	800071e <HAL_GPIO_Init+0x196>
 8000656:	f505 6580 	add.w	r5, r5, #1024	; 0x400
 800065a:	42a8      	cmp	r0, r5
 800065c:	d061      	beq.n	8000722 <HAL_GPIO_Init+0x19a>
 800065e:	f505 6580 	add.w	r5, r5, #1024	; 0x400
 8000662:	42a8      	cmp	r0, r5
 8000664:	d05f      	beq.n	8000726 <HAL_GPIO_Init+0x19e>
 8000666:	f505 6580 	add.w	r5, r5, #1024	; 0x400
 800066a:	42a8      	cmp	r0, r5
 800066c:	bf0c      	ite	eq
 800066e:	2503      	moveq	r5, #3
 8000670:	2504      	movne	r5, #4
 8000672:	fa05 f50b 	lsl.w	r5, r5, fp
 8000676:	ea45 0509 	orr.w	r5, r5, r9
 800067a:	f8c8 5008 	str.w	r5, [r8, #8]
 800067e:	681d      	ldr	r5, [r3, #0]
 8000680:	f41a 3f80 	tst.w	sl, #65536	; 0x10000
 8000684:	bf14      	ite	ne
 8000686:	4315      	orrne	r5, r2
 8000688:	4395      	biceq	r5, r2
 800068a:	601d      	str	r5, [r3, #0]
 800068c:	685d      	ldr	r5, [r3, #4]
 800068e:	f41a 3f00 	tst.w	sl, #131072	; 0x20000
 8000692:	bf14      	ite	ne
 8000694:	4315      	orrne	r5, r2
 8000696:	4395      	biceq	r5, r2
 8000698:	605d      	str	r5, [r3, #4]
 800069a:	689d      	ldr	r5, [r3, #8]
 800069c:	f41a 1f80 	tst.w	sl, #1048576	; 0x100000
 80006a0:	bf14      	ite	ne
 80006a2:	4315      	orrne	r5, r2
 80006a4:	4395      	biceq	r5, r2
 80006a6:	609d      	str	r5, [r3, #8]
 80006a8:	68dd      	ldr	r5, [r3, #12]
 80006aa:	f41a 1f00 	tst.w	sl, #2097152	; 0x200000
 80006ae:	bf14      	ite	ne
 80006b0:	432a      	orrne	r2, r5
 80006b2:	ea25 0202 	biceq.w	r2, r5, r2
 80006b6:	60da      	str	r2, [r3, #12]
 80006b8:	3601      	adds	r6, #1
 80006ba:	e76e      	b.n	800059a <HAL_GPIO_Init+0x12>
 80006bc:	2d03      	cmp	r5, #3
 80006be:	d022      	beq.n	8000706 <HAL_GPIO_Init+0x17e>
 80006c0:	2d11      	cmp	r5, #17
 80006c2:	d189      	bne.n	80005d8 <HAL_GPIO_Init+0x50>
 80006c4:	68cc      	ldr	r4, [r1, #12]
 80006c6:	3404      	adds	r4, #4
 80006c8:	e786      	b.n	80005d8 <HAL_GPIO_Init+0x50>
 80006ca:	4f1b      	ldr	r7, [pc, #108]	; (8000738 <HAL_GPIO_Init+0x1b0>)
 80006cc:	42bd      	cmp	r5, r7
 80006ce:	d009      	beq.n	80006e4 <HAL_GPIO_Init+0x15c>
 80006d0:	d812      	bhi.n	80006f8 <HAL_GPIO_Init+0x170>
 80006d2:	f8df 9070 	ldr.w	r9, [pc, #112]	; 8000744 <HAL_GPIO_Init+0x1bc>
 80006d6:	454d      	cmp	r5, r9
 80006d8:	d004      	beq.n	80006e4 <HAL_GPIO_Init+0x15c>
 80006da:	f509 3980 	add.w	r9, r9, #65536	; 0x10000
 80006de:	454d      	cmp	r5, r9
 80006e0:	f47f af7a 	bne.w	80005d8 <HAL_GPIO_Init+0x50>
 80006e4:	688c      	ldr	r4, [r1, #8]
 80006e6:	b1c4      	cbz	r4, 800071a <HAL_GPIO_Init+0x192>
 80006e8:	2c01      	cmp	r4, #1
 80006ea:	bf0c      	ite	eq
 80006ec:	f8c0 8010 	streq.w	r8, [r0, #16]
 80006f0:	f8c0 8014 	strne.w	r8, [r0, #20]
 80006f4:	2408      	movs	r4, #8
 80006f6:	e76f      	b.n	80005d8 <HAL_GPIO_Init+0x50>
 80006f8:	4575      	cmp	r5, lr
 80006fa:	d0f3      	beq.n	80006e4 <HAL_GPIO_Init+0x15c>
 80006fc:	4565      	cmp	r5, ip
 80006fe:	d0f1      	beq.n	80006e4 <HAL_GPIO_Init+0x15c>
 8000700:	f8df 9044 	ldr.w	r9, [pc, #68]	; 8000748 <HAL_GPIO_Init+0x1c0>
 8000704:	e7eb      	b.n	80006de <HAL_GPIO_Init+0x156>
 8000706:	2400      	movs	r4, #0
 8000708:	e766      	b.n	80005d8 <HAL_GPIO_Init+0x50>
 800070a:	68cc      	ldr	r4, [r1, #12]
 800070c:	e764      	b.n	80005d8 <HAL_GPIO_Init+0x50>
 800070e:	68cc      	ldr	r4, [r1, #12]
 8000710:	3408      	adds	r4, #8
 8000712:	e761      	b.n	80005d8 <HAL_GPIO_Init+0x50>
 8000714:	68cc      	ldr	r4, [r1, #12]
 8000716:	340c      	adds	r4, #12
 8000718:	e75e      	b.n	80005d8 <HAL_GPIO_Init+0x50>
 800071a:	2404      	movs	r4, #4
 800071c:	e75c      	b.n	80005d8 <HAL_GPIO_Init+0x50>
 800071e:	2500      	movs	r5, #0
 8000720:	e7a7      	b.n	8000672 <HAL_GPIO_Init+0xea>
 8000722:	2501      	movs	r5, #1
 8000724:	e7a5      	b.n	8000672 <HAL_GPIO_Init+0xea>
 8000726:	2502      	movs	r5, #2
 8000728:	e7a3      	b.n	8000672 <HAL_GPIO_Init+0xea>
 800072a:	bf00      	nop
 800072c:	40010400 	.word	0x40010400
 8000730:	40021000 	.word	0x40021000
 8000734:	40010800 	.word	0x40010800
 8000738:	10210000 	.word	0x10210000
 800073c:	10310000 	.word	0x10310000
 8000740:	10320000 	.word	0x10320000
 8000744:	10110000 	.word	0x10110000
 8000748:	10220000 	.word	0x10220000

0800074c <HAL_GPIO_ReadPin>:
 800074c:	6883      	ldr	r3, [r0, #8]
 800074e:	4219      	tst	r1, r3
 8000750:	bf14      	ite	ne
 8000752:	2001      	movne	r0, #1
 8000754:	2000      	moveq	r0, #0
 8000756:	4770      	bx	lr

08000758 <HAL_GPIO_WritePin>:
 8000758:	b10a      	cbz	r2, 800075e <HAL_GPIO_WritePin+0x6>
 800075a:	6101      	str	r1, [r0, #16]
 800075c:	4770      	bx	lr
 800075e:	0409      	lsls	r1, r1, #16
 8000760:	e7fb      	b.n	800075a <HAL_GPIO_WritePin+0x2>
	...

08000764 <HAL_RCC_OscConfig>:
 8000764:	e92d 41f3 	stmdb	sp!, {r0, r1, r4, r5, r6, r7, r8, lr}
 8000768:	4605      	mov	r5, r0
 800076a:	b908      	cbnz	r0, 8000770 <HAL_RCC_OscConfig+0xc>
 800076c:	2001      	movs	r0, #1
 800076e:	e03c      	b.n	80007ea <HAL_RCC_OscConfig+0x86>
 8000770:	6803      	ldr	r3, [r0, #0]
 8000772:	07db      	lsls	r3, r3, #31
 8000774:	d410      	bmi.n	8000798 <HAL_RCC_OscConfig+0x34>
 8000776:	682b      	ldr	r3, [r5, #0]
 8000778:	079f      	lsls	r7, r3, #30
 800077a:	d45d      	bmi.n	8000838 <HAL_RCC_OscConfig+0xd4>
 800077c:	682b      	ldr	r3, [r5, #0]
 800077e:	0719      	lsls	r1, r3, #28
 8000780:	f100 8094 	bmi.w	80008ac <HAL_RCC_OscConfig+0x148>
 8000784:	682b      	ldr	r3, [r5, #0]
 8000786:	075a      	lsls	r2, r3, #29
 8000788:	f100 80be 	bmi.w	8000908 <HAL_RCC_OscConfig+0x1a4>
 800078c:	69e8      	ldr	r0, [r5, #28]
 800078e:	2800      	cmp	r0, #0
 8000790:	f040 812c 	bne.w	80009ec <HAL_RCC_OscConfig+0x288>
 8000794:	2000      	movs	r0, #0
 8000796:	e028      	b.n	80007ea <HAL_RCC_OscConfig+0x86>
 8000798:	4c8f      	ldr	r4, [pc, #572]	; (80009d8 <HAL_RCC_OscConfig+0x274>)
 800079a:	6863      	ldr	r3, [r4, #4]
 800079c:	f003 030c 	and.w	r3, r3, #12
 80007a0:	2b04      	cmp	r3, #4
 80007a2:	d007      	beq.n	80007b4 <HAL_RCC_OscConfig+0x50>
 80007a4:	6863      	ldr	r3, [r4, #4]
 80007a6:	f003 030c 	and.w	r3, r3, #12
 80007aa:	2b08      	cmp	r3, #8
 80007ac:	d109      	bne.n	80007c2 <HAL_RCC_OscConfig+0x5e>
 80007ae:	6863      	ldr	r3, [r4, #4]
 80007b0:	03de      	lsls	r6, r3, #15
 80007b2:	d506      	bpl.n	80007c2 <HAL_RCC_OscConfig+0x5e>
 80007b4:	6823      	ldr	r3, [r4, #0]
 80007b6:	039c      	lsls	r4, r3, #14
 80007b8:	d5dd      	bpl.n	8000776 <HAL_RCC_OscConfig+0x12>
 80007ba:	686b      	ldr	r3, [r5, #4]
 80007bc:	2b00      	cmp	r3, #0
 80007be:	d1da      	bne.n	8000776 <HAL_RCC_OscConfig+0x12>
 80007c0:	e7d4      	b.n	800076c <HAL_RCC_OscConfig+0x8>
 80007c2:	686b      	ldr	r3, [r5, #4]
 80007c4:	f5b3 3f80 	cmp.w	r3, #65536	; 0x10000
 80007c8:	d112      	bne.n	80007f0 <HAL_RCC_OscConfig+0x8c>
 80007ca:	6823      	ldr	r3, [r4, #0]
 80007cc:	f443 3380 	orr.w	r3, r3, #65536	; 0x10000
 80007d0:	6023      	str	r3, [r4, #0]
 80007d2:	f7ff fd1b 	bl	800020c <HAL_GetTick>
 80007d6:	4606      	mov	r6, r0
 80007d8:	6823      	ldr	r3, [r4, #0]
 80007da:	0398      	lsls	r0, r3, #14
 80007dc:	d4cb      	bmi.n	8000776 <HAL_RCC_OscConfig+0x12>
 80007de:	f7ff fd15 	bl	800020c <HAL_GetTick>
 80007e2:	1b80      	subs	r0, r0, r6
 80007e4:	2864      	cmp	r0, #100	; 0x64
 80007e6:	d9f7      	bls.n	80007d8 <HAL_RCC_OscConfig+0x74>
 80007e8:	2003      	movs	r0, #3
 80007ea:	b002      	add	sp, #8
 80007ec:	e8bd 81f0 	ldmia.w	sp!, {r4, r5, r6, r7, r8, pc}
 80007f0:	b99b      	cbnz	r3, 800081a <HAL_RCC_OscConfig+0xb6>
 80007f2:	6823      	ldr	r3, [r4, #0]
 80007f4:	f423 3380 	bic.w	r3, r3, #65536	; 0x10000
 80007f8:	6023      	str	r3, [r4, #0]
 80007fa:	6823      	ldr	r3, [r4, #0]
 80007fc:	f423 2380 	bic.w	r3, r3, #262144	; 0x40000
 8000800:	6023      	str	r3, [r4, #0]
 8000802:	f7ff fd03 	bl	800020c <HAL_GetTick>
 8000806:	4606      	mov	r6, r0
 8000808:	6823      	ldr	r3, [r4, #0]
 800080a:	0399      	lsls	r1, r3, #14
 800080c:	d5b3      	bpl.n	8000776 <HAL_RCC_OscConfig+0x12>
 800080e:	f7ff fcfd 	bl	800020c <HAL_GetTick>
 8000812:	1b80      	subs	r0, r0, r6
 8000814:	2864      	cmp	r0, #100	; 0x64
 8000816:	d9f7      	bls.n	8000808 <HAL_RCC_OscConfig+0xa4>
 8000818:	e7e6      	b.n	80007e8 <HAL_RCC_OscConfig+0x84>
 800081a:	f5b3 2fa0 	cmp.w	r3, #327680	; 0x50000
 800081e:	6823      	ldr	r3, [r4, #0]
 8000820:	d103      	bne.n	800082a <HAL_RCC_OscConfig+0xc6>
 8000822:	f443 2380 	orr.w	r3, r3, #262144	; 0x40000
 8000826:	6023      	str	r3, [r4, #0]
 8000828:	e7cf      	b.n	80007ca <HAL_RCC_OscConfig+0x66>
 800082a:	f423 3380 	bic.w	r3, r3, #65536	; 0x10000
 800082e:	6023      	str	r3, [r4, #0]
 8000830:	6823      	ldr	r3, [r4, #0]
 8000832:	f423 2380 	bic.w	r3, r3, #262144	; 0x40000
 8000836:	e7cb      	b.n	80007d0 <HAL_RCC_OscConfig+0x6c>
 8000838:	4c67      	ldr	r4, [pc, #412]	; (80009d8 <HAL_RCC_OscConfig+0x274>)
 800083a:	6863      	ldr	r3, [r4, #4]
 800083c:	f013 0f0c 	tst.w	r3, #12
 8000840:	d007      	beq.n	8000852 <HAL_RCC_OscConfig+0xee>
 8000842:	6863      	ldr	r3, [r4, #4]
 8000844:	f003 030c 	and.w	r3, r3, #12
 8000848:	2b08      	cmp	r3, #8
 800084a:	d110      	bne.n	800086e <HAL_RCC_OscConfig+0x10a>
 800084c:	6863      	ldr	r3, [r4, #4]
 800084e:	03da      	lsls	r2, r3, #15
 8000850:	d40d      	bmi.n	800086e <HAL_RCC_OscConfig+0x10a>
 8000852:	6823      	ldr	r3, [r4, #0]
 8000854:	079b      	lsls	r3, r3, #30
 8000856:	d502      	bpl.n	800085e <HAL_RCC_OscConfig+0xfa>
 8000858:	692b      	ldr	r3, [r5, #16]
 800085a:	2b01      	cmp	r3, #1
 800085c:	d186      	bne.n	800076c <HAL_RCC_OscConfig+0x8>
 800085e:	6823      	ldr	r3, [r4, #0]
 8000860:	696a      	ldr	r2, [r5, #20]
 8000862:	f023 03f8 	bic.w	r3, r3, #248	; 0xf8
 8000866:	ea43 03c2 	orr.w	r3, r3, r2, lsl #3
 800086a:	6023      	str	r3, [r4, #0]
 800086c:	e786      	b.n	800077c <HAL_RCC_OscConfig+0x18>
 800086e:	692a      	ldr	r2, [r5, #16]
 8000870:	4b5a      	ldr	r3, [pc, #360]	; (80009dc <HAL_RCC_OscConfig+0x278>)
 8000872:	b16a      	cbz	r2, 8000890 <HAL_RCC_OscConfig+0x12c>
 8000874:	2201      	movs	r2, #1
 8000876:	601a      	str	r2, [r3, #0]
 8000878:	f7ff fcc8 	bl	800020c <HAL_GetTick>
 800087c:	4606      	mov	r6, r0
 800087e:	6823      	ldr	r3, [r4, #0]
 8000880:	079f      	lsls	r7, r3, #30
 8000882:	d4ec      	bmi.n	800085e <HAL_RCC_OscConfig+0xfa>
 8000884:	f7ff fcc2 	bl	800020c <HAL_GetTick>
 8000888:	1b80      	subs	r0, r0, r6
 800088a:	2802      	cmp	r0, #2
 800088c:	d9f7      	bls.n	800087e <HAL_RCC_OscConfig+0x11a>
 800088e:	e7ab      	b.n	80007e8 <HAL_RCC_OscConfig+0x84>
 8000890:	601a      	str	r2, [r3, #0]
 8000892:	f7ff fcbb 	bl	800020c <HAL_GetTick>
 8000896:	4606      	mov	r6, r0
 8000898:	6823      	ldr	r3, [r4, #0]
 800089a:	0798      	lsls	r0, r3, #30
 800089c:	f57f af6e 	bpl.w	800077c <HAL_RCC_OscConfig+0x18>
 80008a0:	f7ff fcb4 	bl	800020c <HAL_GetTick>
 80008a4:	1b80      	subs	r0, r0, r6
 80008a6:	2802      	cmp	r0, #2
 80008a8:	d9f6      	bls.n	8000898 <HAL_RCC_OscConfig+0x134>
 80008aa:	e79d      	b.n	80007e8 <HAL_RCC_OscConfig+0x84>
 80008ac:	69aa      	ldr	r2, [r5, #24]
 80008ae:	4c4a      	ldr	r4, [pc, #296]	; (80009d8 <HAL_RCC_OscConfig+0x274>)
 80008b0:	4b4b      	ldr	r3, [pc, #300]	; (80009e0 <HAL_RCC_OscConfig+0x27c>)
 80008b2:	b1da      	cbz	r2, 80008ec <HAL_RCC_OscConfig+0x188>
 80008b4:	2201      	movs	r2, #1
 80008b6:	601a      	str	r2, [r3, #0]
 80008b8:	f7ff fca8 	bl	800020c <HAL_GetTick>
 80008bc:	4606      	mov	r6, r0
 80008be:	6a63      	ldr	r3, [r4, #36]	; 0x24
 80008c0:	079b      	lsls	r3, r3, #30
 80008c2:	d50d      	bpl.n	80008e0 <HAL_RCC_OscConfig+0x17c>
 80008c4:	f44f 52fa 	mov.w	r2, #8000	; 0x1f40
 80008c8:	4b46      	ldr	r3, [pc, #280]	; (80009e4 <HAL_RCC_OscConfig+0x280>)
 80008ca:	681b      	ldr	r3, [r3, #0]
 80008cc:	fbb3 f3f2 	udiv	r3, r3, r2
 80008d0:	9301      	str	r3, [sp, #4]
 80008d2:	bf00      	nop
 80008d4:	9b01      	ldr	r3, [sp, #4]
 80008d6:	1e5a      	subs	r2, r3, #1
 80008d8:	9201      	str	r2, [sp, #4]
 80008da:	2b00      	cmp	r3, #0
 80008dc:	d1f9      	bne.n	80008d2 <HAL_RCC_OscConfig+0x16e>
 80008de:	e751      	b.n	8000784 <HAL_RCC_OscConfig+0x20>
 80008e0:	f7ff fc94 	bl	800020c <HAL_GetTick>
 80008e4:	1b80      	subs	r0, r0, r6
 80008e6:	2802      	cmp	r0, #2
 80008e8:	d9e9      	bls.n	80008be <HAL_RCC_OscConfig+0x15a>
 80008ea:	e77d      	b.n	80007e8 <HAL_RCC_OscConfig+0x84>
 80008ec:	601a      	str	r2, [r3, #0]
 80008ee:	f7ff fc8d 	bl	800020c <HAL_GetTick>
 80008f2:	4606      	mov	r6, r0
 80008f4:	6a63      	ldr	r3, [r4, #36]	; 0x24
 80008f6:	079f      	lsls	r7, r3, #30
 80008f8:	f57f af44 	bpl.w	8000784 <HAL_RCC_OscConfig+0x20>
 80008fc:	f7ff fc86 	bl	800020c <HAL_GetTick>
 8000900:	1b80      	subs	r0, r0, r6
 8000902:	2802      	cmp	r0, #2
 8000904:	d9f6      	bls.n	80008f4 <HAL_RCC_OscConfig+0x190>
 8000906:	e76f      	b.n	80007e8 <HAL_RCC_OscConfig+0x84>
 8000908:	4c33      	ldr	r4, [pc, #204]	; (80009d8 <HAL_RCC_OscConfig+0x274>)
 800090a:	69e3      	ldr	r3, [r4, #28]
 800090c:	00d8      	lsls	r0, r3, #3
 800090e:	d424      	bmi.n	800095a <HAL_RCC_OscConfig+0x1f6>
 8000910:	2701      	movs	r7, #1
 8000912:	69e3      	ldr	r3, [r4, #28]
 8000914:	f043 5380 	orr.w	r3, r3, #268435456	; 0x10000000
 8000918:	61e3      	str	r3, [r4, #28]
 800091a:	69e3      	ldr	r3, [r4, #28]
 800091c:	f003 5380 	and.w	r3, r3, #268435456	; 0x10000000
 8000920:	9300      	str	r3, [sp, #0]
 8000922:	9b00      	ldr	r3, [sp, #0]
 8000924:	4e30      	ldr	r6, [pc, #192]	; (80009e8 <HAL_RCC_OscConfig+0x284>)
 8000926:	6833      	ldr	r3, [r6, #0]
 8000928:	05d9      	lsls	r1, r3, #23
 800092a:	d518      	bpl.n	800095e <HAL_RCC_OscConfig+0x1fa>
 800092c:	68eb      	ldr	r3, [r5, #12]
 800092e:	2b01      	cmp	r3, #1
 8000930:	d126      	bne.n	8000980 <HAL_RCC_OscConfig+0x21c>
 8000932:	6a23      	ldr	r3, [r4, #32]
 8000934:	f043 0301 	orr.w	r3, r3, #1
 8000938:	6223      	str	r3, [r4, #32]
 800093a:	f7ff fc67 	bl	800020c <HAL_GetTick>
 800093e:	f241 3688 	movw	r6, #5000	; 0x1388
 8000942:	4680      	mov	r8, r0
 8000944:	6a23      	ldr	r3, [r4, #32]
 8000946:	079b      	lsls	r3, r3, #30
 8000948:	d53f      	bpl.n	80009ca <HAL_RCC_OscConfig+0x266>
 800094a:	2f00      	cmp	r7, #0
 800094c:	f43f af1e 	beq.w	800078c <HAL_RCC_OscConfig+0x28>
 8000950:	69e3      	ldr	r3, [r4, #28]
 8000952:	f023 5380 	bic.w	r3, r3, #268435456	; 0x10000000
 8000956:	61e3      	str	r3, [r4, #28]
 8000958:	e718      	b.n	800078c <HAL_RCC_OscConfig+0x28>
 800095a:	2700      	movs	r7, #0
 800095c:	e7e2      	b.n	8000924 <HAL_RCC_OscConfig+0x1c0>
 800095e:	6833      	ldr	r3, [r6, #0]
 8000960:	f443 7380 	orr.w	r3, r3, #256	; 0x100
 8000964:	6033      	str	r3, [r6, #0]
 8000966:	f7ff fc51 	bl	800020c <HAL_GetTick>
 800096a:	4680      	mov	r8, r0
 800096c:	6833      	ldr	r3, [r6, #0]
 800096e:	05da      	lsls	r2, r3, #23
 8000970:	d4dc      	bmi.n	800092c <HAL_RCC_OscConfig+0x1c8>
 8000972:	f7ff fc4b 	bl	800020c <HAL_GetTick>
 8000976:	eba0 0008 	sub.w	r0, r0, r8
 800097a:	2864      	cmp	r0, #100	; 0x64
 800097c:	d9f6      	bls.n	800096c <HAL_RCC_OscConfig+0x208>
 800097e:	e733      	b.n	80007e8 <HAL_RCC_OscConfig+0x84>
 8000980:	b9ab      	cbnz	r3, 80009ae <HAL_RCC_OscConfig+0x24a>
 8000982:	6a23      	ldr	r3, [r4, #32]
 8000984:	f241 3888 	movw	r8, #5000	; 0x1388
 8000988:	f023 0301 	bic.w	r3, r3, #1
 800098c:	6223      	str	r3, [r4, #32]
 800098e:	6a23      	ldr	r3, [r4, #32]
 8000990:	f023 0304 	bic.w	r3, r3, #4
 8000994:	6223      	str	r3, [r4, #32]
 8000996:	f7ff fc39 	bl	800020c <HAL_GetTick>
 800099a:	4606      	mov	r6, r0
 800099c:	6a23      	ldr	r3, [r4, #32]
 800099e:	0798      	lsls	r0, r3, #30
 80009a0:	d5d3      	bpl.n	800094a <HAL_RCC_OscConfig+0x1e6>
 80009a2:	f7ff fc33 	bl	800020c <HAL_GetTick>
 80009a6:	1b80      	subs	r0, r0, r6
 80009a8:	4540      	cmp	r0, r8
 80009aa:	d9f7      	bls.n	800099c <HAL_RCC_OscConfig+0x238>
 80009ac:	e71c      	b.n	80007e8 <HAL_RCC_OscConfig+0x84>
 80009ae:	2b05      	cmp	r3, #5
 80009b0:	6a23      	ldr	r3, [r4, #32]
 80009b2:	d103      	bne.n	80009bc <HAL_RCC_OscConfig+0x258>
 80009b4:	f043 0304 	orr.w	r3, r3, #4
 80009b8:	6223      	str	r3, [r4, #32]
 80009ba:	e7ba      	b.n	8000932 <HAL_RCC_OscConfig+0x1ce>
 80009bc:	f023 0301 	bic.w	r3, r3, #1
 80009c0:	6223      	str	r3, [r4, #32]
 80009c2:	6a23      	ldr	r3, [r4, #32]
 80009c4:	f023 0304 	bic.w	r3, r3, #4
 80009c8:	e7b6      	b.n	8000938 <HAL_RCC_OscConfig+0x1d4>
 80009ca:	f7ff fc1f 	bl	800020c <HAL_GetTick>
 80009ce:	eba0 0008 	sub.w	r0, r0, r8
 80009d2:	42b0      	cmp	r0, r6
 80009d4:	d9b6      	bls.n	8000944 <HAL_RCC_OscConfig+0x1e0>
 80009d6:	e707      	b.n	80007e8 <HAL_RCC_OscConfig+0x84>
 80009d8:	40021000 	.word	0x40021000
 80009dc:	42420000 	.word	0x42420000
 80009e0:	42420480 	.word	0x42420480
 80009e4:	20000008 	.word	0x20000008
 80009e8:	40007000 	.word	0x40007000
 80009ec:	4b2a      	ldr	r3, [pc, #168]	; (8000a98 <HAL_RCC_OscConfig+0x334>)
 80009ee:	685a      	ldr	r2, [r3, #4]
 80009f0:	461c      	mov	r4, r3
 80009f2:	f002 020c 	and.w	r2, r2, #12
 80009f6:	2a08      	cmp	r2, #8
 80009f8:	d03d      	beq.n	8000a76 <HAL_RCC_OscConfig+0x312>
 80009fa:	2300      	movs	r3, #0
 80009fc:	4e27      	ldr	r6, [pc, #156]	; (8000a9c <HAL_RCC_OscConfig+0x338>)
 80009fe:	2802      	cmp	r0, #2
 8000a00:	6033      	str	r3, [r6, #0]
 8000a02:	d12b      	bne.n	8000a5c <HAL_RCC_OscConfig+0x2f8>
 8000a04:	f7ff fc02 	bl	800020c <HAL_GetTick>
 8000a08:	4607      	mov	r7, r0
 8000a0a:	6823      	ldr	r3, [r4, #0]
 8000a0c:	0199      	lsls	r1, r3, #6
 8000a0e:	d41f      	bmi.n	8000a50 <HAL_RCC_OscConfig+0x2ec>
 8000a10:	6a2b      	ldr	r3, [r5, #32]
 8000a12:	f5b3 3f80 	cmp.w	r3, #65536	; 0x10000
 8000a16:	d105      	bne.n	8000a24 <HAL_RCC_OscConfig+0x2c0>
 8000a18:	6862      	ldr	r2, [r4, #4]
 8000a1a:	68a9      	ldr	r1, [r5, #8]
 8000a1c:	f422 3200 	bic.w	r2, r2, #131072	; 0x20000
 8000a20:	430a      	orrs	r2, r1
 8000a22:	6062      	str	r2, [r4, #4]
 8000a24:	6a69      	ldr	r1, [r5, #36]	; 0x24
 8000a26:	6862      	ldr	r2, [r4, #4]
 8000a28:	430b      	orrs	r3, r1
 8000a2a:	f422 1274 	bic.w	r2, r2, #3997696	; 0x3d0000
 8000a2e:	4313      	orrs	r3, r2
 8000a30:	6063      	str	r3, [r4, #4]
 8000a32:	2301      	movs	r3, #1
 8000a34:	6033      	str	r3, [r6, #0]
 8000a36:	f7ff fbe9 	bl	800020c <HAL_GetTick>
 8000a3a:	4605      	mov	r5, r0
 8000a3c:	6823      	ldr	r3, [r4, #0]
 8000a3e:	019a      	lsls	r2, r3, #6
 8000a40:	f53f aea8 	bmi.w	8000794 <HAL_RCC_OscConfig+0x30>
 8000a44:	f7ff fbe2 	bl	800020c <HAL_GetTick>
 8000a48:	1b40      	subs	r0, r0, r5
 8000a4a:	2802      	cmp	r0, #2
 8000a4c:	d9f6      	bls.n	8000a3c <HAL_RCC_OscConfig+0x2d8>
 8000a4e:	e6cb      	b.n	80007e8 <HAL_RCC_OscConfig+0x84>
 8000a50:	f7ff fbdc 	bl	800020c <HAL_GetTick>
 8000a54:	1bc0      	subs	r0, r0, r7
 8000a56:	2802      	cmp	r0, #2
 8000a58:	d9d7      	bls.n	8000a0a <HAL_RCC_OscConfig+0x2a6>
 8000a5a:	e6c5      	b.n	80007e8 <HAL_RCC_OscConfig+0x84>
 8000a5c:	f7ff fbd6 	bl	800020c <HAL_GetTick>
 8000a60:	4605      	mov	r5, r0
 8000a62:	6823      	ldr	r3, [r4, #0]
 8000a64:	019b      	lsls	r3, r3, #6
 8000a66:	f57f ae95 	bpl.w	8000794 <HAL_RCC_OscConfig+0x30>
 8000a6a:	f7ff fbcf 	bl	800020c <HAL_GetTick>
 8000a6e:	1b40      	subs	r0, r0, r5
 8000a70:	2802      	cmp	r0, #2
 8000a72:	d9f6      	bls.n	8000a62 <HAL_RCC_OscConfig+0x2fe>
 8000a74:	e6b8      	b.n	80007e8 <HAL_RCC_OscConfig+0x84>
 8000a76:	2801      	cmp	r0, #1
 8000a78:	f43f aeb7 	beq.w	80007ea <HAL_RCC_OscConfig+0x86>
 8000a7c:	6858      	ldr	r0, [r3, #4]
 8000a7e:	6a2b      	ldr	r3, [r5, #32]
 8000a80:	f400 3280 	and.w	r2, r0, #65536	; 0x10000
 8000a84:	429a      	cmp	r2, r3
 8000a86:	f47f ae71 	bne.w	800076c <HAL_RCC_OscConfig+0x8>
 8000a8a:	6a6b      	ldr	r3, [r5, #36]	; 0x24
 8000a8c:	f400 1070 	and.w	r0, r0, #3932160	; 0x3c0000
 8000a90:	1ac0      	subs	r0, r0, r3
 8000a92:	bf18      	it	ne
 8000a94:	2001      	movne	r0, #1
 8000a96:	e6a8      	b.n	80007ea <HAL_RCC_OscConfig+0x86>
 8000a98:	40021000 	.word	0x40021000
 8000a9c:	42420060 	.word	0x42420060

08000aa0 <HAL_RCC_GetSysClockFreq>:
 8000aa0:	b530      	push	{r4, r5, lr}
 8000aa2:	4b19      	ldr	r3, [pc, #100]	; (8000b08 <HAL_RCC_GetSysClockFreq+0x68>)
 8000aa4:	b087      	sub	sp, #28
 8000aa6:	ac02      	add	r4, sp, #8
 8000aa8:	f103 0510 	add.w	r5, r3, #16
 8000aac:	4622      	mov	r2, r4
 8000aae:	6818      	ldr	r0, [r3, #0]
 8000ab0:	6859      	ldr	r1, [r3, #4]
 8000ab2:	3308      	adds	r3, #8
 8000ab4:	c203      	stmia	r2!, {r0, r1}
 8000ab6:	42ab      	cmp	r3, r5
 8000ab8:	4614      	mov	r4, r2
 8000aba:	d1f7      	bne.n	8000aac <HAL_RCC_GetSysClockFreq+0xc>
 8000abc:	2301      	movs	r3, #1
 8000abe:	f88d 3004 	strb.w	r3, [sp, #4]
 8000ac2:	2302      	movs	r3, #2
 8000ac4:	4911      	ldr	r1, [pc, #68]	; (8000b0c <HAL_RCC_GetSysClockFreq+0x6c>)
 8000ac6:	f88d 3005 	strb.w	r3, [sp, #5]
 8000aca:	684b      	ldr	r3, [r1, #4]
 8000acc:	f003 020c 	and.w	r2, r3, #12
 8000ad0:	2a08      	cmp	r2, #8
 8000ad2:	d117      	bne.n	8000b04 <HAL_RCC_GetSysClockFreq+0x64>
 8000ad4:	f3c3 4283 	ubfx	r2, r3, #18, #4
 8000ad8:	a806      	add	r0, sp, #24
 8000ada:	4402      	add	r2, r0
 8000adc:	03db      	lsls	r3, r3, #15
 8000ade:	f812 2c10 	ldrb.w	r2, [r2, #-16]
 8000ae2:	d50c      	bpl.n	8000afe <HAL_RCC_GetSysClockFreq+0x5e>
 8000ae4:	684b      	ldr	r3, [r1, #4]
 8000ae6:	480a      	ldr	r0, [pc, #40]	; (8000b10 <HAL_RCC_GetSysClockFreq+0x70>)
 8000ae8:	f3c3 4340 	ubfx	r3, r3, #17, #1
 8000aec:	4350      	muls	r0, r2
 8000aee:	aa06      	add	r2, sp, #24
 8000af0:	4413      	add	r3, r2
 8000af2:	f813 3c14 	ldrb.w	r3, [r3, #-20]
 8000af6:	fbb0 f0f3 	udiv	r0, r0, r3
 8000afa:	b007      	add	sp, #28
 8000afc:	bd30      	pop	{r4, r5, pc}
 8000afe:	4805      	ldr	r0, [pc, #20]	; (8000b14 <HAL_RCC_GetSysClockFreq+0x74>)
 8000b00:	4350      	muls	r0, r2
 8000b02:	e7fa      	b.n	8000afa <HAL_RCC_GetSysClockFreq+0x5a>
 8000b04:	4802      	ldr	r0, [pc, #8]	; (8000b10 <HAL_RCC_GetSysClockFreq+0x70>)
 8000b06:	e7f8      	b.n	8000afa <HAL_RCC_GetSysClockFreq+0x5a>
 8000b08:	08001784 	.word	0x08001784
 8000b0c:	40021000 	.word	0x40021000
 8000b10:	007a1200 	.word	0x007a1200
 8000b14:	003d0900 	.word	0x003d0900

08000b18 <HAL_RCC_ClockConfig>:
 8000b18:	e92d 41f0 	stmdb	sp!, {r4, r5, r6, r7, r8, lr}
 8000b1c:	460d      	mov	r5, r1
 8000b1e:	4604      	mov	r4, r0
 8000b20:	b910      	cbnz	r0, 8000b28 <HAL_RCC_ClockConfig+0x10>
 8000b22:	2001      	movs	r0, #1
 8000b24:	e8bd 81f0 	ldmia.w	sp!, {r4, r5, r6, r7, r8, pc}
 8000b28:	4a45      	ldr	r2, [pc, #276]	; (8000c40 <HAL_RCC_ClockConfig+0x128>)
 8000b2a:	6813      	ldr	r3, [r2, #0]
 8000b2c:	f003 0307 	and.w	r3, r3, #7
 8000b30:	428b      	cmp	r3, r1
 8000b32:	d329      	bcc.n	8000b88 <HAL_RCC_ClockConfig+0x70>
 8000b34:	6821      	ldr	r1, [r4, #0]
 8000b36:	078e      	lsls	r6, r1, #30
 8000b38:	d431      	bmi.n	8000b9e <HAL_RCC_ClockConfig+0x86>
 8000b3a:	07ca      	lsls	r2, r1, #31
 8000b3c:	d444      	bmi.n	8000bc8 <HAL_RCC_ClockConfig+0xb0>
 8000b3e:	4a40      	ldr	r2, [pc, #256]	; (8000c40 <HAL_RCC_ClockConfig+0x128>)
 8000b40:	6813      	ldr	r3, [r2, #0]
 8000b42:	f003 0307 	and.w	r3, r3, #7
 8000b46:	429d      	cmp	r5, r3
 8000b48:	d367      	bcc.n	8000c1a <HAL_RCC_ClockConfig+0x102>
 8000b4a:	6822      	ldr	r2, [r4, #0]
 8000b4c:	4d3d      	ldr	r5, [pc, #244]	; (8000c44 <HAL_RCC_ClockConfig+0x12c>)
 8000b4e:	f012 0f04 	tst.w	r2, #4
 8000b52:	d16e      	bne.n	8000c32 <HAL_RCC_ClockConfig+0x11a>
 8000b54:	0713      	lsls	r3, r2, #28
 8000b56:	d506      	bpl.n	8000b66 <HAL_RCC_ClockConfig+0x4e>
 8000b58:	686b      	ldr	r3, [r5, #4]
 8000b5a:	6922      	ldr	r2, [r4, #16]
 8000b5c:	f423 5360 	bic.w	r3, r3, #14336	; 0x3800
 8000b60:	ea43 03c2 	orr.w	r3, r3, r2, lsl #3
 8000b64:	606b      	str	r3, [r5, #4]
 8000b66:	f7ff ff9b 	bl	8000aa0 <HAL_RCC_GetSysClockFreq>
 8000b6a:	686b      	ldr	r3, [r5, #4]
 8000b6c:	4a36      	ldr	r2, [pc, #216]	; (8000c48 <HAL_RCC_ClockConfig+0x130>)
 8000b6e:	f3c3 1303 	ubfx	r3, r3, #4, #4
 8000b72:	5cd3      	ldrb	r3, [r2, r3]
 8000b74:	40d8      	lsrs	r0, r3
 8000b76:	4b35      	ldr	r3, [pc, #212]	; (8000c4c <HAL_RCC_ClockConfig+0x134>)
 8000b78:	6018      	str	r0, [r3, #0]
 8000b7a:	4b35      	ldr	r3, [pc, #212]	; (8000c50 <HAL_RCC_ClockConfig+0x138>)
 8000b7c:	6818      	ldr	r0, [r3, #0]
 8000b7e:	f7ff fb03 	bl	8000188 <HAL_InitTick>
 8000b82:	2000      	movs	r0, #0
 8000b84:	e8bd 81f0 	ldmia.w	sp!, {r4, r5, r6, r7, r8, pc}
 8000b88:	6813      	ldr	r3, [r2, #0]
 8000b8a:	f023 0307 	bic.w	r3, r3, #7
 8000b8e:	430b      	orrs	r3, r1
 8000b90:	6013      	str	r3, [r2, #0]
 8000b92:	6813      	ldr	r3, [r2, #0]
 8000b94:	f003 0307 	and.w	r3, r3, #7
 8000b98:	4299      	cmp	r1, r3
 8000b9a:	d1c2      	bne.n	8000b22 <HAL_RCC_ClockConfig+0xa>
 8000b9c:	e7ca      	b.n	8000b34 <HAL_RCC_ClockConfig+0x1c>
 8000b9e:	4b29      	ldr	r3, [pc, #164]	; (8000c44 <HAL_RCC_ClockConfig+0x12c>)
 8000ba0:	f011 0f04 	tst.w	r1, #4
 8000ba4:	bf1e      	ittt	ne
 8000ba6:	685a      	ldrne	r2, [r3, #4]
 8000ba8:	f442 62e0 	orrne.w	r2, r2, #1792	; 0x700
 8000bac:	605a      	strne	r2, [r3, #4]
 8000bae:	0708      	lsls	r0, r1, #28
 8000bb0:	bf42      	ittt	mi
 8000bb2:	685a      	ldrmi	r2, [r3, #4]
 8000bb4:	f442 5260 	orrmi.w	r2, r2, #14336	; 0x3800
 8000bb8:	605a      	strmi	r2, [r3, #4]
 8000bba:	685a      	ldr	r2, [r3, #4]
 8000bbc:	68a0      	ldr	r0, [r4, #8]
 8000bbe:	f022 02f0 	bic.w	r2, r2, #240	; 0xf0
 8000bc2:	4302      	orrs	r2, r0
 8000bc4:	605a      	str	r2, [r3, #4]
 8000bc6:	e7b8      	b.n	8000b3a <HAL_RCC_ClockConfig+0x22>
 8000bc8:	6862      	ldr	r2, [r4, #4]
 8000bca:	4e1e      	ldr	r6, [pc, #120]	; (8000c44 <HAL_RCC_ClockConfig+0x12c>)
 8000bcc:	2a01      	cmp	r2, #1
 8000bce:	6833      	ldr	r3, [r6, #0]
 8000bd0:	d11b      	bne.n	8000c0a <HAL_RCC_ClockConfig+0xf2>
 8000bd2:	f413 3f00 	tst.w	r3, #131072	; 0x20000
 8000bd6:	d0a4      	beq.n	8000b22 <HAL_RCC_ClockConfig+0xa>
 8000bd8:	6873      	ldr	r3, [r6, #4]
 8000bda:	f241 3888 	movw	r8, #5000	; 0x1388
 8000bde:	f023 0303 	bic.w	r3, r3, #3
 8000be2:	4313      	orrs	r3, r2
 8000be4:	6073      	str	r3, [r6, #4]
 8000be6:	f7ff fb11 	bl	800020c <HAL_GetTick>
 8000bea:	4607      	mov	r7, r0
 8000bec:	6873      	ldr	r3, [r6, #4]
 8000bee:	6862      	ldr	r2, [r4, #4]
 8000bf0:	f003 030c 	and.w	r3, r3, #12
 8000bf4:	ebb3 0f82 	cmp.w	r3, r2, lsl #2
 8000bf8:	d0a1      	beq.n	8000b3e <HAL_RCC_ClockConfig+0x26>
 8000bfa:	f7ff fb07 	bl	800020c <HAL_GetTick>
 8000bfe:	1bc0      	subs	r0, r0, r7
 8000c00:	4540      	cmp	r0, r8
 8000c02:	d9f3      	bls.n	8000bec <HAL_RCC_ClockConfig+0xd4>
 8000c04:	2003      	movs	r0, #3
 8000c06:	e8bd 81f0 	ldmia.w	sp!, {r4, r5, r6, r7, r8, pc}
 8000c0a:	2a02      	cmp	r2, #2
 8000c0c:	d102      	bne.n	8000c14 <HAL_RCC_ClockConfig+0xfc>
 8000c0e:	f013 7f00 	tst.w	r3, #33554432	; 0x2000000
 8000c12:	e7e0      	b.n	8000bd6 <HAL_RCC_ClockConfig+0xbe>
 8000c14:	f013 0f02 	tst.w	r3, #2
 8000c18:	e7dd      	b.n	8000bd6 <HAL_RCC_ClockConfig+0xbe>
 8000c1a:	6813      	ldr	r3, [r2, #0]
 8000c1c:	f023 0307 	bic.w	r3, r3, #7
 8000c20:	432b      	orrs	r3, r5
 8000c22:	6013      	str	r3, [r2, #0]
 8000c24:	6813      	ldr	r3, [r2, #0]
 8000c26:	f003 0307 	and.w	r3, r3, #7
 8000c2a:	429d      	cmp	r5, r3
 8000c2c:	f47f af79 	bne.w	8000b22 <HAL_RCC_ClockConfig+0xa>
 8000c30:	e78b      	b.n	8000b4a <HAL_RCC_ClockConfig+0x32>
 8000c32:	686b      	ldr	r3, [r5, #4]
 8000c34:	68e1      	ldr	r1, [r4, #12]
 8000c36:	f423 63e0 	bic.w	r3, r3, #1792	; 0x700
 8000c3a:	430b      	orrs	r3, r1
 8000c3c:	606b      	str	r3, [r5, #4]
 8000c3e:	e789      	b.n	8000b54 <HAL_RCC_ClockConfig+0x3c>
 8000c40:	40022000 	.word	0x40022000
 8000c44:	40021000 	.word	0x40021000
 8000c48:	0800191e 	.word	0x0800191e
 8000c4c:	20000008 	.word	0x20000008
 8000c50:	20000004 	.word	0x20000004

08000c54 <HAL_RCC_GetPCLK1Freq>:
 8000c54:	4b04      	ldr	r3, [pc, #16]	; (8000c68 <HAL_RCC_GetPCLK1Freq+0x14>)
 8000c56:	4a05      	ldr	r2, [pc, #20]	; (8000c6c <HAL_RCC_GetPCLK1Freq+0x18>)
 8000c58:	685b      	ldr	r3, [r3, #4]
 8000c5a:	f3c3 2302 	ubfx	r3, r3, #8, #3
 8000c5e:	5cd3      	ldrb	r3, [r2, r3]
 8000c60:	4a03      	ldr	r2, [pc, #12]	; (8000c70 <HAL_RCC_GetPCLK1Freq+0x1c>)
 8000c62:	6810      	ldr	r0, [r2, #0]
 8000c64:	40d8      	lsrs	r0, r3
 8000c66:	4770      	bx	lr
 8000c68:	40021000 	.word	0x40021000
 8000c6c:	0800192e 	.word	0x0800192e
 8000c70:	20000008 	.word	0x20000008

08000c74 <HAL_RCC_GetPCLK2Freq>:
 8000c74:	4b04      	ldr	r3, [pc, #16]	; (8000c88 <HAL_RCC_GetPCLK2Freq+0x14>)
 8000c76:	4a05      	ldr	r2, [pc, #20]	; (8000c8c <HAL_RCC_GetPCLK2Freq+0x18>)
 8000c78:	685b      	ldr	r3, [r3, #4]
 8000c7a:	f3c3 23c2 	ubfx	r3, r3, #11, #3
 8000c7e:	5cd3      	ldrb	r3, [r2, r3]
 8000c80:	4a03      	ldr	r2, [pc, #12]	; (8000c90 <HAL_RCC_GetPCLK2Freq+0x1c>)
 8000c82:	6810      	ldr	r0, [r2, #0]
 8000c84:	40d8      	lsrs	r0, r3
 8000c86:	4770      	bx	lr
 8000c88:	40021000 	.word	0x40021000
 8000c8c:	0800192e 	.word	0x0800192e
 8000c90:	20000008 	.word	0x20000008

08000c94 <UART_SetConfig>:
 8000c94:	b538      	push	{r3, r4, r5, lr}
 8000c96:	4605      	mov	r5, r0
 8000c98:	6803      	ldr	r3, [r0, #0]
 8000c9a:	68c1      	ldr	r1, [r0, #12]
 8000c9c:	691a      	ldr	r2, [r3, #16]
 8000c9e:	2419      	movs	r4, #25
 8000ca0:	f422 5240 	bic.w	r2, r2, #12288	; 0x3000
 8000ca4:	430a      	orrs	r2, r1
 8000ca6:	611a      	str	r2, [r3, #16]
 8000ca8:	6882      	ldr	r2, [r0, #8]
 8000caa:	6900      	ldr	r0, [r0, #16]
 8000cac:	68d9      	ldr	r1, [r3, #12]
 8000cae:	4302      	orrs	r2, r0
 8000cb0:	6968      	ldr	r0, [r5, #20]
 8000cb2:	f421 51b0 	bic.w	r1, r1, #5632	; 0x1600
 8000cb6:	f021 010c 	bic.w	r1, r1, #12
 8000cba:	4302      	orrs	r2, r0
 8000cbc:	430a      	orrs	r2, r1
 8000cbe:	60da      	str	r2, [r3, #12]
 8000cc0:	695a      	ldr	r2, [r3, #20]
 8000cc2:	69a9      	ldr	r1, [r5, #24]
 8000cc4:	f422 7240 	bic.w	r2, r2, #768	; 0x300
 8000cc8:	430a      	orrs	r2, r1
 8000cca:	615a      	str	r2, [r3, #20]
 8000ccc:	4a0d      	ldr	r2, [pc, #52]	; (8000d04 <UART_SetConfig+0x70>)
 8000cce:	4293      	cmp	r3, r2
 8000cd0:	d114      	bne.n	8000cfc <UART_SetConfig+0x68>
 8000cd2:	f7ff ffcf 	bl	8000c74 <HAL_RCC_GetPCLK2Freq>
 8000cd6:	4360      	muls	r0, r4
 8000cd8:	686c      	ldr	r4, [r5, #4]
 8000cda:	2264      	movs	r2, #100	; 0x64
 8000cdc:	00a4      	lsls	r4, r4, #2
 8000cde:	fbb0 f0f4 	udiv	r0, r0, r4
 8000ce2:	fbb0 f4f2 	udiv	r4, r0, r2
 8000ce6:	fb02 0314 	mls	r3, r2, r4, r0
 8000cea:	011b      	lsls	r3, r3, #4
 8000cec:	3332      	adds	r3, #50	; 0x32
 8000cee:	fbb3 f3f2 	udiv	r3, r3, r2
 8000cf2:	6829      	ldr	r1, [r5, #0]
 8000cf4:	eb03 1304 	add.w	r3, r3, r4, lsl #4
 8000cf8:	608b      	str	r3, [r1, #8]
 8000cfa:	bd38      	pop	{r3, r4, r5, pc}
 8000cfc:	f7ff ffaa 	bl	8000c54 <HAL_RCC_GetPCLK1Freq>
 8000d00:	e7e9      	b.n	8000cd6 <UART_SetConfig+0x42>
 8000d02:	bf00      	nop
 8000d04:	40013800 	.word	0x40013800

08000d08 <UART_WaitOnFlagUntilTimeout.constprop.3>:
 8000d08:	b5f8      	push	{r3, r4, r5, r6, r7, lr}
 8000d0a:	4604      	mov	r4, r0
 8000d0c:	460e      	mov	r6, r1
 8000d0e:	4617      	mov	r7, r2
 8000d10:	461d      	mov	r5, r3
 8000d12:	6821      	ldr	r1, [r4, #0]
 8000d14:	680b      	ldr	r3, [r1, #0]
 8000d16:	ea36 0303 	bics.w	r3, r6, r3
 8000d1a:	d101      	bne.n	8000d20 <UART_WaitOnFlagUntilTimeout.constprop.3+0x18>
 8000d1c:	2000      	movs	r0, #0
 8000d1e:	bdf8      	pop	{r3, r4, r5, r6, r7, pc}
 8000d20:	1c6b      	adds	r3, r5, #1
 8000d22:	d0f7      	beq.n	8000d14 <UART_WaitOnFlagUntilTimeout.constprop.3+0xc>
 8000d24:	b995      	cbnz	r5, 8000d4c <UART_WaitOnFlagUntilTimeout.constprop.3+0x44>
 8000d26:	6823      	ldr	r3, [r4, #0]
 8000d28:	2003      	movs	r0, #3
 8000d2a:	68da      	ldr	r2, [r3, #12]
 8000d2c:	f422 72d0 	bic.w	r2, r2, #416	; 0x1a0
 8000d30:	60da      	str	r2, [r3, #12]
 8000d32:	695a      	ldr	r2, [r3, #20]
 8000d34:	f022 0201 	bic.w	r2, r2, #1
 8000d38:	615a      	str	r2, [r3, #20]
 8000d3a:	2320      	movs	r3, #32
 8000d3c:	f884 3039 	strb.w	r3, [r4, #57]	; 0x39
 8000d40:	f884 303a 	strb.w	r3, [r4, #58]	; 0x3a
 8000d44:	2300      	movs	r3, #0
 8000d46:	f884 3038 	strb.w	r3, [r4, #56]	; 0x38
 8000d4a:	bdf8      	pop	{r3, r4, r5, r6, r7, pc}
 8000d4c:	f7ff fa5e 	bl	800020c <HAL_GetTick>
 8000d50:	1bc0      	subs	r0, r0, r7
 8000d52:	4285      	cmp	r5, r0
 8000d54:	d2dd      	bcs.n	8000d12 <UART_WaitOnFlagUntilTimeout.constprop.3+0xa>
 8000d56:	e7e6      	b.n	8000d26 <UART_WaitOnFlagUntilTimeout.constprop.3+0x1e>

08000d58 <HAL_UART_Init>:
 8000d58:	b510      	push	{r4, lr}
 8000d5a:	4604      	mov	r4, r0
 8000d5c:	b340      	cbz	r0, 8000db0 <HAL_UART_Init+0x58>
 8000d5e:	f890 3039 	ldrb.w	r3, [r0, #57]	; 0x39
 8000d62:	f003 02ff 	and.w	r2, r3, #255	; 0xff
 8000d66:	b91b      	cbnz	r3, 8000d70 <HAL_UART_Init+0x18>
 8000d68:	f880 2038 	strb.w	r2, [r0, #56]	; 0x38
 8000d6c:	f000 fab6 	bl	80012dc <HAL_UART_MspInit>
 8000d70:	2324      	movs	r3, #36	; 0x24
 8000d72:	6822      	ldr	r2, [r4, #0]
 8000d74:	f884 3039 	strb.w	r3, [r4, #57]	; 0x39
 8000d78:	68d3      	ldr	r3, [r2, #12]
 8000d7a:	4620      	mov	r0, r4
 8000d7c:	f423 5300 	bic.w	r3, r3, #8192	; 0x2000
 8000d80:	60d3      	str	r3, [r2, #12]
 8000d82:	f7ff ff87 	bl	8000c94 <UART_SetConfig>
 8000d86:	6823      	ldr	r3, [r4, #0]
 8000d88:	2000      	movs	r0, #0
 8000d8a:	691a      	ldr	r2, [r3, #16]
 8000d8c:	f422 4290 	bic.w	r2, r2, #18432	; 0x4800
 8000d90:	611a      	str	r2, [r3, #16]
 8000d92:	695a      	ldr	r2, [r3, #20]
 8000d94:	f022 022a 	bic.w	r2, r2, #42	; 0x2a
 8000d98:	615a      	str	r2, [r3, #20]
 8000d9a:	68da      	ldr	r2, [r3, #12]
 8000d9c:	f442 5200 	orr.w	r2, r2, #8192	; 0x2000
 8000da0:	60da      	str	r2, [r3, #12]
 8000da2:	2320      	movs	r3, #32
 8000da4:	63e0      	str	r0, [r4, #60]	; 0x3c
 8000da6:	f884 3039 	strb.w	r3, [r4, #57]	; 0x39
 8000daa:	f884 303a 	strb.w	r3, [r4, #58]	; 0x3a
 8000dae:	bd10      	pop	{r4, pc}
 8000db0:	2001      	movs	r0, #1
 8000db2:	bd10      	pop	{r4, pc}

08000db4 <HAL_UART_Transmit>:
 8000db4:	e92d 41f0 	stmdb	sp!, {r4, r5, r6, r7, r8, lr}
 8000db8:	461f      	mov	r7, r3
 8000dba:	f890 3039 	ldrb.w	r3, [r0, #57]	; 0x39
 8000dbe:	4604      	mov	r4, r0
 8000dc0:	2b20      	cmp	r3, #32
 8000dc2:	460d      	mov	r5, r1
 8000dc4:	4690      	mov	r8, r2
 8000dc6:	d14e      	bne.n	8000e66 <HAL_UART_Transmit+0xb2>
 8000dc8:	2900      	cmp	r1, #0
 8000dca:	d049      	beq.n	8000e60 <HAL_UART_Transmit+0xac>
 8000dcc:	2a00      	cmp	r2, #0
 8000dce:	d047      	beq.n	8000e60 <HAL_UART_Transmit+0xac>
 8000dd0:	f890 3038 	ldrb.w	r3, [r0, #56]	; 0x38
 8000dd4:	2b01      	cmp	r3, #1
 8000dd6:	d046      	beq.n	8000e66 <HAL_UART_Transmit+0xb2>
 8000dd8:	2301      	movs	r3, #1
 8000dda:	f880 3038 	strb.w	r3, [r0, #56]	; 0x38
 8000dde:	2300      	movs	r3, #0
 8000de0:	63c3      	str	r3, [r0, #60]	; 0x3c
 8000de2:	2321      	movs	r3, #33	; 0x21
 8000de4:	f880 3039 	strb.w	r3, [r0, #57]	; 0x39
 8000de8:	f7ff fa10 	bl	800020c <HAL_GetTick>
 8000dec:	4606      	mov	r6, r0
 8000dee:	f8a4 8024 	strh.w	r8, [r4, #36]	; 0x24
 8000df2:	f8a4 8026 	strh.w	r8, [r4, #38]	; 0x26
 8000df6:	8ce3      	ldrh	r3, [r4, #38]	; 0x26
 8000df8:	b29b      	uxth	r3, r3
 8000dfa:	b96b      	cbnz	r3, 8000e18 <HAL_UART_Transmit+0x64>
 8000dfc:	463b      	mov	r3, r7
 8000dfe:	4632      	mov	r2, r6
 8000e00:	2140      	movs	r1, #64	; 0x40
 8000e02:	4620      	mov	r0, r4
 8000e04:	f7ff ff80 	bl	8000d08 <UART_WaitOnFlagUntilTimeout.constprop.3>
 8000e08:	b9a8      	cbnz	r0, 8000e36 <HAL_UART_Transmit+0x82>
 8000e0a:	2320      	movs	r3, #32
 8000e0c:	f884 0038 	strb.w	r0, [r4, #56]	; 0x38
 8000e10:	f884 3039 	strb.w	r3, [r4, #57]	; 0x39
 8000e14:	e8bd 81f0 	ldmia.w	sp!, {r4, r5, r6, r7, r8, pc}
 8000e18:	8ce3      	ldrh	r3, [r4, #38]	; 0x26
 8000e1a:	4632      	mov	r2, r6
 8000e1c:	3b01      	subs	r3, #1
 8000e1e:	b29b      	uxth	r3, r3
 8000e20:	84e3      	strh	r3, [r4, #38]	; 0x26
 8000e22:	68a3      	ldr	r3, [r4, #8]
 8000e24:	2180      	movs	r1, #128	; 0x80
 8000e26:	f5b3 5f80 	cmp.w	r3, #4096	; 0x1000
 8000e2a:	4620      	mov	r0, r4
 8000e2c:	463b      	mov	r3, r7
 8000e2e:	d10e      	bne.n	8000e4e <HAL_UART_Transmit+0x9a>
 8000e30:	f7ff ff6a 	bl	8000d08 <UART_WaitOnFlagUntilTimeout.constprop.3>
 8000e34:	b110      	cbz	r0, 8000e3c <HAL_UART_Transmit+0x88>
 8000e36:	2003      	movs	r0, #3
 8000e38:	e8bd 81f0 	ldmia.w	sp!, {r4, r5, r6, r7, r8, pc}
 8000e3c:	882b      	ldrh	r3, [r5, #0]
 8000e3e:	6822      	ldr	r2, [r4, #0]
 8000e40:	f3c3 0308 	ubfx	r3, r3, #0, #9
 8000e44:	6053      	str	r3, [r2, #4]
 8000e46:	6923      	ldr	r3, [r4, #16]
 8000e48:	b943      	cbnz	r3, 8000e5c <HAL_UART_Transmit+0xa8>
 8000e4a:	3502      	adds	r5, #2
 8000e4c:	e7d3      	b.n	8000df6 <HAL_UART_Transmit+0x42>
 8000e4e:	f7ff ff5b 	bl	8000d08 <UART_WaitOnFlagUntilTimeout.constprop.3>
 8000e52:	2800      	cmp	r0, #0
 8000e54:	d1ef      	bne.n	8000e36 <HAL_UART_Transmit+0x82>
 8000e56:	6823      	ldr	r3, [r4, #0]
 8000e58:	782a      	ldrb	r2, [r5, #0]
 8000e5a:	605a      	str	r2, [r3, #4]
 8000e5c:	3501      	adds	r5, #1
 8000e5e:	e7ca      	b.n	8000df6 <HAL_UART_Transmit+0x42>
 8000e60:	2001      	movs	r0, #1
 8000e62:	e8bd 81f0 	ldmia.w	sp!, {r4, r5, r6, r7, r8, pc}
 8000e66:	2002      	movs	r0, #2
 8000e68:	e8bd 81f0 	ldmia.w	sp!, {r4, r5, r6, r7, r8, pc}

08000e6c <HAL_UART_Receive>:
 8000e6c:	e92d 41f0 	stmdb	sp!, {r4, r5, r6, r7, r8, lr}
 8000e70:	461f      	mov	r7, r3
 8000e72:	f890 303a 	ldrb.w	r3, [r0, #58]	; 0x3a
 8000e76:	4604      	mov	r4, r0
 8000e78:	2b20      	cmp	r3, #32
 8000e7a:	460d      	mov	r5, r1
 8000e7c:	4690      	mov	r8, r2
 8000e7e:	d151      	bne.n	8000f24 <HAL_UART_Receive+0xb8>
 8000e80:	2900      	cmp	r1, #0
 8000e82:	d04c      	beq.n	8000f1e <HAL_UART_Receive+0xb2>
 8000e84:	2a00      	cmp	r2, #0
 8000e86:	d04a      	beq.n	8000f1e <HAL_UART_Receive+0xb2>
 8000e88:	f890 3038 	ldrb.w	r3, [r0, #56]	; 0x38
 8000e8c:	2b01      	cmp	r3, #1
 8000e8e:	d049      	beq.n	8000f24 <HAL_UART_Receive+0xb8>
 8000e90:	2301      	movs	r3, #1
 8000e92:	f880 3038 	strb.w	r3, [r0, #56]	; 0x38
 8000e96:	2300      	movs	r3, #0
 8000e98:	63c3      	str	r3, [r0, #60]	; 0x3c
 8000e9a:	2322      	movs	r3, #34	; 0x22
 8000e9c:	f880 303a 	strb.w	r3, [r0, #58]	; 0x3a
 8000ea0:	f7ff f9b4 	bl	800020c <HAL_GetTick>
 8000ea4:	4606      	mov	r6, r0
 8000ea6:	f8a4 802c 	strh.w	r8, [r4, #44]	; 0x2c
 8000eaa:	f8a4 802e 	strh.w	r8, [r4, #46]	; 0x2e
 8000eae:	8de0      	ldrh	r0, [r4, #46]	; 0x2e
 8000eb0:	b280      	uxth	r0, r0
 8000eb2:	b930      	cbnz	r0, 8000ec2 <HAL_UART_Receive+0x56>
 8000eb4:	2320      	movs	r3, #32
 8000eb6:	f884 0038 	strb.w	r0, [r4, #56]	; 0x38
 8000eba:	f884 303a 	strb.w	r3, [r4, #58]	; 0x3a
 8000ebe:	e8bd 81f0 	ldmia.w	sp!, {r4, r5, r6, r7, r8, pc}
 8000ec2:	8de3      	ldrh	r3, [r4, #46]	; 0x2e
 8000ec4:	4632      	mov	r2, r6
 8000ec6:	3b01      	subs	r3, #1
 8000ec8:	b29b      	uxth	r3, r3
 8000eca:	85e3      	strh	r3, [r4, #46]	; 0x2e
 8000ecc:	68a3      	ldr	r3, [r4, #8]
 8000ece:	2120      	movs	r1, #32
 8000ed0:	f5b3 5f80 	cmp.w	r3, #4096	; 0x1000
 8000ed4:	4620      	mov	r0, r4
 8000ed6:	463b      	mov	r3, r7
 8000ed8:	d112      	bne.n	8000f00 <HAL_UART_Receive+0x94>
 8000eda:	f7ff ff15 	bl	8000d08 <UART_WaitOnFlagUntilTimeout.constprop.3>
 8000ede:	b110      	cbz	r0, 8000ee6 <HAL_UART_Receive+0x7a>
 8000ee0:	2003      	movs	r0, #3
 8000ee2:	e8bd 81f0 	ldmia.w	sp!, {r4, r5, r6, r7, r8, pc}
 8000ee6:	6823      	ldr	r3, [r4, #0]
 8000ee8:	6922      	ldr	r2, [r4, #16]
 8000eea:	685b      	ldr	r3, [r3, #4]
 8000eec:	b922      	cbnz	r2, 8000ef8 <HAL_UART_Receive+0x8c>
 8000eee:	f3c3 0308 	ubfx	r3, r3, #0, #9
 8000ef2:	f825 3b02 	strh.w	r3, [r5], #2
 8000ef6:	e7da      	b.n	8000eae <HAL_UART_Receive+0x42>
 8000ef8:	b2db      	uxtb	r3, r3
 8000efa:	f825 3b01 	strh.w	r3, [r5], #1
 8000efe:	e7d6      	b.n	8000eae <HAL_UART_Receive+0x42>
 8000f00:	f7ff ff02 	bl	8000d08 <UART_WaitOnFlagUntilTimeout.constprop.3>
 8000f04:	2800      	cmp	r0, #0
 8000f06:	d1eb      	bne.n	8000ee0 <HAL_UART_Receive+0x74>
 8000f08:	6823      	ldr	r3, [r4, #0]
 8000f0a:	6921      	ldr	r1, [r4, #16]
 8000f0c:	1c6a      	adds	r2, r5, #1
 8000f0e:	685b      	ldr	r3, [r3, #4]
 8000f10:	b911      	cbnz	r1, 8000f18 <HAL_UART_Receive+0xac>
 8000f12:	702b      	strb	r3, [r5, #0]
 8000f14:	4615      	mov	r5, r2
 8000f16:	e7ca      	b.n	8000eae <HAL_UART_Receive+0x42>
 8000f18:	f003 037f 	and.w	r3, r3, #127	; 0x7f
 8000f1c:	e7f9      	b.n	8000f12 <HAL_UART_Receive+0xa6>
 8000f1e:	2001      	movs	r0, #1
 8000f20:	e8bd 81f0 	ldmia.w	sp!, {r4, r5, r6, r7, r8, pc}
 8000f24:	2002      	movs	r0, #2
 8000f26:	e8bd 81f0 	ldmia.w	sp!, {r4, r5, r6, r7, r8, pc}

08000f2a <HAL_UART_Abort>:
 8000f2a:	6803      	ldr	r3, [r0, #0]
 8000f2c:	b510      	push	{r4, lr}
 8000f2e:	68da      	ldr	r2, [r3, #12]
 8000f30:	4604      	mov	r4, r0
 8000f32:	f422 72f0 	bic.w	r2, r2, #480	; 0x1e0
 8000f36:	60da      	str	r2, [r3, #12]
 8000f38:	695a      	ldr	r2, [r3, #20]
 8000f3a:	f022 0201 	bic.w	r2, r2, #1
 8000f3e:	615a      	str	r2, [r3, #20]
 8000f40:	695a      	ldr	r2, [r3, #20]
 8000f42:	0611      	lsls	r1, r2, #24
 8000f44:	d513      	bpl.n	8000f6e <HAL_UART_Abort+0x44>
 8000f46:	695a      	ldr	r2, [r3, #20]
 8000f48:	6b00      	ldr	r0, [r0, #48]	; 0x30
 8000f4a:	f022 0280 	bic.w	r2, r2, #128	; 0x80
 8000f4e:	615a      	str	r2, [r3, #20]
 8000f50:	b168      	cbz	r0, 8000f6e <HAL_UART_Abort+0x44>
 8000f52:	2300      	movs	r3, #0
 8000f54:	6343      	str	r3, [r0, #52]	; 0x34
 8000f56:	f7ff f9cd 	bl	80002f4 <HAL_DMA_Abort>
 8000f5a:	b140      	cbz	r0, 8000f6e <HAL_UART_Abort+0x44>
 8000f5c:	6b20      	ldr	r0, [r4, #48]	; 0x30
 8000f5e:	f7ff f9ea 	bl	8000336 <HAL_DMA_GetError>
 8000f62:	2820      	cmp	r0, #32
 8000f64:	d103      	bne.n	8000f6e <HAL_UART_Abort+0x44>
 8000f66:	2310      	movs	r3, #16
 8000f68:	2003      	movs	r0, #3
 8000f6a:	63e3      	str	r3, [r4, #60]	; 0x3c
 8000f6c:	bd10      	pop	{r4, pc}
 8000f6e:	6823      	ldr	r3, [r4, #0]
 8000f70:	695a      	ldr	r2, [r3, #20]
 8000f72:	0652      	lsls	r2, r2, #25
 8000f74:	d50f      	bpl.n	8000f96 <HAL_UART_Abort+0x6c>
 8000f76:	695a      	ldr	r2, [r3, #20]
 8000f78:	6b60      	ldr	r0, [r4, #52]	; 0x34
 8000f7a:	f022 0240 	bic.w	r2, r2, #64	; 0x40
 8000f7e:	615a      	str	r2, [r3, #20]
 8000f80:	b148      	cbz	r0, 8000f96 <HAL_UART_Abort+0x6c>
 8000f82:	2300      	movs	r3, #0
 8000f84:	6343      	str	r3, [r0, #52]	; 0x34
 8000f86:	f7ff f9b5 	bl	80002f4 <HAL_DMA_Abort>
 8000f8a:	b120      	cbz	r0, 8000f96 <HAL_UART_Abort+0x6c>
 8000f8c:	6b60      	ldr	r0, [r4, #52]	; 0x34
 8000f8e:	f7ff f9d2 	bl	8000336 <HAL_DMA_GetError>
 8000f92:	2820      	cmp	r0, #32
 8000f94:	d0e7      	beq.n	8000f66 <HAL_UART_Abort+0x3c>
 8000f96:	2000      	movs	r0, #0
 8000f98:	2320      	movs	r3, #32
 8000f9a:	84e0      	strh	r0, [r4, #38]	; 0x26
 8000f9c:	85e0      	strh	r0, [r4, #46]	; 0x2e
 8000f9e:	63e0      	str	r0, [r4, #60]	; 0x3c
 8000fa0:	f884 303a 	strb.w	r3, [r4, #58]	; 0x3a
 8000fa4:	f884 3039 	strb.w	r3, [r4, #57]	; 0x39
 8000fa8:	bd10      	pop	{r4, pc}

08000faa <HAL_UART_GetState>:
 8000faa:	f890 2039 	ldrb.w	r2, [r0, #57]	; 0x39
 8000fae:	f890 003a 	ldrb.w	r0, [r0, #58]	; 0x3a
 8000fb2:	4310      	orrs	r0, r2
 8000fb4:	4770      	bx	lr
	...

08000fb8 <flash_erase>:
 8000fb8:	b510      	push	{r4, lr}
 8000fba:	b086      	sub	sp, #24
 8000fbc:	4604      	mov	r4, r0
 8000fbe:	f7ff f9e5 	bl	800038c <HAL_FLASH_Unlock>
 8000fc2:	2300      	movs	r3, #0
 8000fc4:	9301      	str	r3, [sp, #4]
 8000fc6:	9302      	str	r3, [sp, #8]
 8000fc8:	2301      	movs	r3, #1
 8000fca:	9303      	str	r3, [sp, #12]
 8000fcc:	4b08      	ldr	r3, [pc, #32]	; (8000ff0 <flash_erase+0x38>)
 8000fce:	a901      	add	r1, sp, #4
 8000fd0:	1b1b      	subs	r3, r3, r4
 8000fd2:	0a9b      	lsrs	r3, r3, #10
 8000fd4:	a802      	add	r0, sp, #8
 8000fd6:	9404      	str	r4, [sp, #16]
 8000fd8:	9305      	str	r3, [sp, #20]
 8000fda:	f7ff fa87 	bl	80004ec <HAL_FLASHEx_Erase>
 8000fde:	4604      	mov	r4, r0
 8000fe0:	f7ff f9e6 	bl	80003b0 <HAL_FLASH_Lock>
 8000fe4:	2c00      	cmp	r4, #0
 8000fe6:	bf14      	ite	ne
 8000fe8:	20ff      	movne	r0, #255	; 0xff
 8000fea:	2000      	moveq	r0, #0
 8000fec:	b006      	add	sp, #24
 8000fee:	bd10      	pop	{r4, pc}
 8000ff0:	0801ffff 	.word	0x0801ffff

08000ff4 <flash_write>:
 8000ff4:	e92d 43f8 	stmdb	sp!, {r3, r4, r5, r6, r7, r8, r9, lr}
 8000ff8:	2500      	movs	r5, #0
 8000ffa:	4606      	mov	r6, r0
 8000ffc:	460f      	mov	r7, r1
 8000ffe:	4690      	mov	r8, r2
 8001000:	462c      	mov	r4, r5
 8001002:	f7ff f9c3 	bl	800038c <HAL_FLASH_Unlock>
 8001006:	f8df 9044 	ldr.w	r9, [pc, #68]	; 800104c <flash_write+0x58>
 800100a:	4545      	cmp	r5, r8
 800100c:	d000      	beq.n	8001010 <flash_write+0x1c>
 800100e:	b124      	cbz	r4, 800101a <flash_write+0x26>
 8001010:	f7ff f9ce 	bl	80003b0 <HAL_FLASH_Lock>
 8001014:	4620      	mov	r0, r4
 8001016:	e8bd 83f8 	ldmia.w	sp!, {r3, r4, r5, r6, r7, r8, r9, pc}
 800101a:	454e      	cmp	r6, r9
 800101c:	d814      	bhi.n	8001048 <flash_write+0x54>
 800101e:	4623      	mov	r3, r4
 8001020:	f857 2025 	ldr.w	r2, [r7, r5, lsl #2]
 8001024:	4631      	mov	r1, r6
 8001026:	2002      	movs	r0, #2
 8001028:	f7ff f9f6 	bl	8000418 <HAL_FLASH_Program>
 800102c:	2800      	cmp	r0, #0
 800102e:	bf18      	it	ne
 8001030:	2402      	movne	r4, #2
 8001032:	6833      	ldr	r3, [r6, #0]
 8001034:	f857 2025 	ldr.w	r2, [r7, r5, lsl #2]
 8001038:	3604      	adds	r6, #4
 800103a:	429a      	cmp	r2, r3
 800103c:	bf1c      	itt	ne
 800103e:	f044 0404 	orrne.w	r4, r4, #4
 8001042:	b2e4      	uxtbne	r4, r4
 8001044:	3501      	adds	r5, #1
 8001046:	e7e0      	b.n	800100a <flash_write+0x16>
 8001048:	2401      	movs	r4, #1
 800104a:	e7fb      	b.n	8001044 <flash_write+0x50>
 800104c:	0801ffee 	.word	0x0801ffee

08001050 <flash_jump_to_app>:
 8001050:	4b06      	ldr	r3, [pc, #24]	; (800106c <flash_jump_to_app+0x1c>)
 8001052:	b510      	push	{r4, lr}
 8001054:	681c      	ldr	r4, [r3, #0]
 8001056:	f7ff f887 	bl	8000168 <HAL_DeInit>
 800105a:	4b05      	ldr	r3, [pc, #20]	; (8001070 <flash_jump_to_app+0x20>)
 800105c:	681b      	ldr	r3, [r3, #0]
 800105e:	f383 8808 	msr	MSP, r3
 8001062:	4623      	mov	r3, r4
 8001064:	e8bd 4010 	ldmia.w	sp!, {r4, lr}
 8001068:	4718      	bx	r3
 800106a:	bf00      	nop
 800106c:	08008004 	.word	0x08008004
 8001070:	08008000 	.word	0x08008000

08001074 <SystemClock_Config>:
 8001074:	b530      	push	{r4, r5, lr}
 8001076:	b091      	sub	sp, #68	; 0x44
 8001078:	2228      	movs	r2, #40	; 0x28
 800107a:	2100      	movs	r1, #0
 800107c:	a806      	add	r0, sp, #24
 800107e:	f000 fb6d 	bl	800175c <memset>
 8001082:	2214      	movs	r2, #20
 8001084:	2100      	movs	r1, #0
 8001086:	a801      	add	r0, sp, #4
 8001088:	f000 fb68 	bl	800175c <memset>
 800108c:	2310      	movs	r3, #16
 800108e:	2402      	movs	r4, #2
 8001090:	2501      	movs	r5, #1
 8001092:	930b      	str	r3, [sp, #44]	; 0x2c
 8001094:	f44f 1320 	mov.w	r3, #2621440	; 0x280000
 8001098:	a806      	add	r0, sp, #24
 800109a:	930f      	str	r3, [sp, #60]	; 0x3c
 800109c:	9406      	str	r4, [sp, #24]
 800109e:	950a      	str	r5, [sp, #40]	; 0x28
 80010a0:	940d      	str	r4, [sp, #52]	; 0x34
 80010a2:	f7ff fb5f 	bl	8000764 <HAL_RCC_OscConfig>
 80010a6:	230f      	movs	r3, #15
 80010a8:	f44f 6280 	mov.w	r2, #1024	; 0x400
 80010ac:	9301      	str	r3, [sp, #4]
 80010ae:	2300      	movs	r3, #0
 80010b0:	4629      	mov	r1, r5
 80010b2:	a801      	add	r0, sp, #4
 80010b4:	9402      	str	r4, [sp, #8]
 80010b6:	9303      	str	r3, [sp, #12]
 80010b8:	9204      	str	r2, [sp, #16]
 80010ba:	9305      	str	r3, [sp, #20]
 80010bc:	f7ff fd2c 	bl	8000b18 <HAL_RCC_ClockConfig>
 80010c0:	b011      	add	sp, #68	; 0x44
 80010c2:	bd30      	pop	{r4, r5, pc}

080010c4 <main>:
 80010c4:	e92d 41f0 	stmdb	sp!, {r4, r5, r6, r7, r8, lr}
 80010c8:	b088      	sub	sp, #32
 80010ca:	ad04      	add	r5, sp, #16
 80010cc:	f7ff f880 	bl	80001d0 <HAL_Init>
 80010d0:	f7ff ffd0 	bl	8001074 <SystemClock_Config>
 80010d4:	2210      	movs	r2, #16
 80010d6:	2100      	movs	r1, #0
 80010d8:	4628      	mov	r0, r5
 80010da:	f000 fb3f 	bl	800175c <memset>
 80010de:	4b5f      	ldr	r3, [pc, #380]	; (800125c <main+0x198>)
 80010e0:	2108      	movs	r1, #8
 80010e2:	699a      	ldr	r2, [r3, #24]
 80010e4:	485e      	ldr	r0, [pc, #376]	; (8001260 <main+0x19c>)
 80010e6:	f042 0210 	orr.w	r2, r2, #16
 80010ea:	619a      	str	r2, [r3, #24]
 80010ec:	699a      	ldr	r2, [r3, #24]
 80010ee:	2400      	movs	r4, #0
 80010f0:	f002 0210 	and.w	r2, r2, #16
 80010f4:	9200      	str	r2, [sp, #0]
 80010f6:	9a00      	ldr	r2, [sp, #0]
 80010f8:	699a      	ldr	r2, [r3, #24]
 80010fa:	2601      	movs	r6, #1
 80010fc:	f042 0208 	orr.w	r2, r2, #8
 8001100:	619a      	str	r2, [r3, #24]
 8001102:	699a      	ldr	r2, [r3, #24]
 8001104:	2702      	movs	r7, #2
 8001106:	f002 0208 	and.w	r2, r2, #8
 800110a:	9201      	str	r2, [sp, #4]
 800110c:	9a01      	ldr	r2, [sp, #4]
 800110e:	699a      	ldr	r2, [r3, #24]
 8001110:	f04f 0808 	mov.w	r8, #8
 8001114:	f042 0204 	orr.w	r2, r2, #4
 8001118:	619a      	str	r2, [r3, #24]
 800111a:	699a      	ldr	r2, [r3, #24]
 800111c:	f002 0204 	and.w	r2, r2, #4
 8001120:	9202      	str	r2, [sp, #8]
 8001122:	9a02      	ldr	r2, [sp, #8]
 8001124:	699a      	ldr	r2, [r3, #24]
 8001126:	f042 0220 	orr.w	r2, r2, #32
 800112a:	619a      	str	r2, [r3, #24]
 800112c:	699b      	ldr	r3, [r3, #24]
 800112e:	2200      	movs	r2, #0
 8001130:	f003 0320 	and.w	r3, r3, #32
 8001134:	9303      	str	r3, [sp, #12]
 8001136:	9b03      	ldr	r3, [sp, #12]
 8001138:	f7ff fb0e 	bl	8000758 <HAL_GPIO_WritePin>
 800113c:	2200      	movs	r2, #0
 800113e:	2102      	movs	r1, #2
 8001140:	4848      	ldr	r0, [pc, #288]	; (8001264 <main+0x1a0>)
 8001142:	f7ff fb09 	bl	8000758 <HAL_GPIO_WritePin>
 8001146:	f44f 5300 	mov.w	r3, #8192	; 0x2000
 800114a:	4629      	mov	r1, r5
 800114c:	4845      	ldr	r0, [pc, #276]	; (8001264 <main+0x1a0>)
 800114e:	9304      	str	r3, [sp, #16]
 8001150:	9405      	str	r4, [sp, #20]
 8001152:	9406      	str	r4, [sp, #24]
 8001154:	f7ff fa18 	bl	8000588 <HAL_GPIO_Init>
 8001158:	4629      	mov	r1, r5
 800115a:	4841      	ldr	r0, [pc, #260]	; (8001260 <main+0x19c>)
 800115c:	9605      	str	r6, [sp, #20]
 800115e:	f8cd 8010 	str.w	r8, [sp, #16]
 8001162:	9406      	str	r4, [sp, #24]
 8001164:	9707      	str	r7, [sp, #28]
 8001166:	f7ff fa0f 	bl	8000588 <HAL_GPIO_Init>
 800116a:	4629      	mov	r1, r5
 800116c:	483d      	ldr	r0, [pc, #244]	; (8001264 <main+0x1a0>)
 800116e:	9605      	str	r6, [sp, #20]
 8001170:	9704      	str	r7, [sp, #16]
 8001172:	9406      	str	r4, [sp, #24]
 8001174:	9707      	str	r7, [sp, #28]
 8001176:	f7ff fa07 	bl	8000588 <HAL_GPIO_Init>
 800117a:	483b      	ldr	r0, [pc, #236]	; (8001268 <main+0x1a4>)
 800117c:	4a3b      	ldr	r2, [pc, #236]	; (800126c <main+0x1a8>)
 800117e:	4b3c      	ldr	r3, [pc, #240]	; (8001270 <main+0x1ac>)
 8001180:	6084      	str	r4, [r0, #8]
 8001182:	e880 000c 	stmia.w	r0, {r2, r3}
 8001186:	230c      	movs	r3, #12
 8001188:	60c4      	str	r4, [r0, #12]
 800118a:	6143      	str	r3, [r0, #20]
 800118c:	6104      	str	r4, [r0, #16]
 800118e:	6184      	str	r4, [r0, #24]
 8001190:	61c4      	str	r4, [r0, #28]
 8001192:	f7ff fde1 	bl	8000d58 <HAL_UART_Init>
 8001196:	4622      	mov	r2, r4
 8001198:	4639      	mov	r1, r7
 800119a:	4832      	ldr	r0, [pc, #200]	; (8001264 <main+0x1a0>)
 800119c:	f7ff fadc 	bl	8000758 <HAL_GPIO_WritePin>
 80011a0:	4632      	mov	r2, r6
 80011a2:	4641      	mov	r1, r8
 80011a4:	482e      	ldr	r0, [pc, #184]	; (8001260 <main+0x19c>)
 80011a6:	f7ff fad7 	bl	8000758 <HAL_GPIO_WritePin>
 80011aa:	4832      	ldr	r0, [pc, #200]	; (8001274 <main+0x1b0>)
 80011ac:	f000 f91c 	bl	80013e8 <uart_transmit_str>
 80011b0:	4831      	ldr	r0, [pc, #196]	; (8001278 <main+0x1b4>)
 80011b2:	f000 f919 	bl	80013e8 <uart_transmit_str>
 80011b6:	4831      	ldr	r0, [pc, #196]	; (800127c <main+0x1b8>)
 80011b8:	f000 f916 	bl	80013e8 <uart_transmit_str>
 80011bc:	4830      	ldr	r0, [pc, #192]	; (8001280 <main+0x1bc>)
 80011be:	f000 f913 	bl	80013e8 <uart_transmit_str>
 80011c2:	4830      	ldr	r0, [pc, #192]	; (8001284 <main+0x1c0>)
 80011c4:	f000 f910 	bl	80013e8 <uart_transmit_str>
 80011c8:	4632      	mov	r2, r6
 80011ca:	4639      	mov	r1, r7
 80011cc:	4825      	ldr	r0, [pc, #148]	; (8001264 <main+0x1a0>)
 80011ce:	f7ff fac3 	bl	8000758 <HAL_GPIO_WritePin>
 80011d2:	4622      	mov	r2, r4
 80011d4:	4641      	mov	r1, r8
 80011d6:	4822      	ldr	r0, [pc, #136]	; (8001260 <main+0x19c>)
 80011d8:	f7ff fabe 	bl	8000758 <HAL_GPIO_WritePin>
 80011dc:	2064      	movs	r0, #100	; 0x64
 80011de:	f7ff f81b 	bl	8000218 <HAL_Delay>
 80011e2:	4632      	mov	r2, r6
 80011e4:	4639      	mov	r1, r7
 80011e6:	481f      	ldr	r0, [pc, #124]	; (8001264 <main+0x1a0>)
 80011e8:	f7ff fab6 	bl	8000758 <HAL_GPIO_WritePin>
 80011ec:	4632      	mov	r2, r6
 80011ee:	4641      	mov	r1, r8
 80011f0:	481b      	ldr	r0, [pc, #108]	; (8001260 <main+0x19c>)
 80011f2:	f7ff fab1 	bl	8000758 <HAL_GPIO_WritePin>
 80011f6:	2105      	movs	r1, #5
 80011f8:	4628      	mov	r0, r5
 80011fa:	f000 f8d7 	bl	80013ac <uart_receive>
 80011fe:	4626      	mov	r6, r4
 8001200:	5d2b      	ldrb	r3, [r5, r4]
 8001202:	3401      	adds	r4, #1
 8001204:	2b62      	cmp	r3, #98	; 0x62
 8001206:	bf08      	it	eq
 8001208:	2601      	moveq	r6, #1
 800120a:	2c05      	cmp	r4, #5
 800120c:	d1f8      	bne.n	8001200 <main+0x13c>
 800120e:	2200      	movs	r2, #0
 8001210:	2102      	movs	r1, #2
 8001212:	4814      	ldr	r0, [pc, #80]	; (8001264 <main+0x1a0>)
 8001214:	f7ff faa0 	bl	8000758 <HAL_GPIO_WritePin>
 8001218:	2108      	movs	r1, #8
 800121a:	4811      	ldr	r0, [pc, #68]	; (8001260 <main+0x19c>)
 800121c:	2200      	movs	r2, #0
 800121e:	f7ff fa9b 	bl	8000758 <HAL_GPIO_WritePin>
 8001222:	f44f 5100 	mov.w	r1, #8192	; 0x2000
 8001226:	480f      	ldr	r0, [pc, #60]	; (8001264 <main+0x1a0>)
 8001228:	f7ff fa90 	bl	800074c <HAL_GPIO_ReadPin>
 800122c:	b968      	cbnz	r0, 800124a <main+0x186>
 800122e:	4816      	ldr	r0, [pc, #88]	; (8001288 <main+0x1c4>)
 8001230:	f000 f8da 	bl	80013e8 <uart_transmit_str>
 8001234:	4d15      	ldr	r5, [pc, #84]	; (800128c <main+0x1c8>)
 8001236:	4c16      	ldr	r4, [pc, #88]	; (8001290 <main+0x1cc>)
 8001238:	4628      	mov	r0, r5
 800123a:	f000 f8d5 	bl	80013e8 <uart_transmit_str>
 800123e:	f000 f9bf 	bl	80015c0 <xmodem_receive>
 8001242:	4620      	mov	r0, r4
 8001244:	f000 f8d0 	bl	80013e8 <uart_transmit_str>
 8001248:	e7f6      	b.n	8001238 <main+0x174>
 800124a:	2e00      	cmp	r6, #0
 800124c:	d1f2      	bne.n	8001234 <main+0x170>
 800124e:	4811      	ldr	r0, [pc, #68]	; (8001294 <main+0x1d0>)
 8001250:	f000 f8ca 	bl	80013e8 <uart_transmit_str>
 8001254:	f7ff fefc 	bl	8001050 <flash_jump_to_app>
 8001258:	e7ec      	b.n	8001234 <main+0x170>
 800125a:	bf00      	nop
 800125c:	40021000 	.word	0x40021000
 8001260:	40010c00 	.word	0x40010c00
 8001264:	40011000 	.word	0x40011000
 8001268:	20000058 	.word	0x20000058
 800126c:	40013800 	.word	0x40013800
 8001270:	000668a0 	.word	0x000668a0
 8001274:	08001794 	.word	0x08001794
 8001278:	080017c3 	.word	0x080017c3
 800127c:	080017e9 	.word	0x080017e9
 8001280:	08001816 	.word	0x08001816
 8001284:	08001845 	.word	0x08001845
 8001288:	08001878 	.word	0x08001878
 800128c:	080018b1 	.word	0x080018b1
 8001290:	080018fe 	.word	0x080018fe
 8001294:	08001890 	.word	0x08001890

08001298 <HAL_MspInit>:
 8001298:	4b0e      	ldr	r3, [pc, #56]	; (80012d4 <HAL_MspInit+0x3c>)
 800129a:	b082      	sub	sp, #8
 800129c:	699a      	ldr	r2, [r3, #24]
 800129e:	f042 0201 	orr.w	r2, r2, #1
 80012a2:	619a      	str	r2, [r3, #24]
 80012a4:	699a      	ldr	r2, [r3, #24]
 80012a6:	f002 0201 	and.w	r2, r2, #1
 80012aa:	9200      	str	r2, [sp, #0]
 80012ac:	9a00      	ldr	r2, [sp, #0]
 80012ae:	69da      	ldr	r2, [r3, #28]
 80012b0:	f042 5280 	orr.w	r2, r2, #268435456	; 0x10000000
 80012b4:	61da      	str	r2, [r3, #28]
 80012b6:	69db      	ldr	r3, [r3, #28]
 80012b8:	4a07      	ldr	r2, [pc, #28]	; (80012d8 <HAL_MspInit+0x40>)
 80012ba:	f003 5380 	and.w	r3, r3, #268435456	; 0x10000000
 80012be:	9301      	str	r3, [sp, #4]
 80012c0:	9b01      	ldr	r3, [sp, #4]
 80012c2:	6853      	ldr	r3, [r2, #4]
 80012c4:	f023 63e0 	bic.w	r3, r3, #117440512	; 0x7000000
 80012c8:	f043 7300 	orr.w	r3, r3, #33554432	; 0x2000000
 80012cc:	6053      	str	r3, [r2, #4]
 80012ce:	b002      	add	sp, #8
 80012d0:	4770      	bx	lr
 80012d2:	bf00      	nop
 80012d4:	40021000 	.word	0x40021000
 80012d8:	40010000 	.word	0x40010000

080012dc <HAL_UART_MspInit>:
 80012dc:	b510      	push	{r4, lr}
 80012de:	4604      	mov	r4, r0
 80012e0:	b086      	sub	sp, #24
 80012e2:	2210      	movs	r2, #16
 80012e4:	2100      	movs	r1, #0
 80012e6:	a802      	add	r0, sp, #8
 80012e8:	f000 fa38 	bl	800175c <memset>
 80012ec:	6822      	ldr	r2, [r4, #0]
 80012ee:	4b15      	ldr	r3, [pc, #84]	; (8001344 <HAL_UART_MspInit+0x68>)
 80012f0:	429a      	cmp	r2, r3
 80012f2:	d125      	bne.n	8001340 <HAL_UART_MspInit+0x64>
 80012f4:	f503 4358 	add.w	r3, r3, #55296	; 0xd800
 80012f8:	699a      	ldr	r2, [r3, #24]
 80012fa:	a902      	add	r1, sp, #8
 80012fc:	f442 4280 	orr.w	r2, r2, #16384	; 0x4000
 8001300:	619a      	str	r2, [r3, #24]
 8001302:	699a      	ldr	r2, [r3, #24]
 8001304:	4810      	ldr	r0, [pc, #64]	; (8001348 <HAL_UART_MspInit+0x6c>)
 8001306:	f402 4280 	and.w	r2, r2, #16384	; 0x4000
 800130a:	9200      	str	r2, [sp, #0]
 800130c:	9a00      	ldr	r2, [sp, #0]
 800130e:	699a      	ldr	r2, [r3, #24]
 8001310:	f042 0204 	orr.w	r2, r2, #4
 8001314:	619a      	str	r2, [r3, #24]
 8001316:	699b      	ldr	r3, [r3, #24]
 8001318:	f003 0304 	and.w	r3, r3, #4
 800131c:	9301      	str	r3, [sp, #4]
 800131e:	9b01      	ldr	r3, [sp, #4]
 8001320:	f44f 6380 	mov.w	r3, #1024	; 0x400
 8001324:	9302      	str	r3, [sp, #8]
 8001326:	f7ff f92f 	bl	8000588 <HAL_GPIO_Init>
 800132a:	f44f 7300 	mov.w	r3, #512	; 0x200
 800132e:	9302      	str	r3, [sp, #8]
 8001330:	2302      	movs	r3, #2
 8001332:	9303      	str	r3, [sp, #12]
 8001334:	2303      	movs	r3, #3
 8001336:	a902      	add	r1, sp, #8
 8001338:	4803      	ldr	r0, [pc, #12]	; (8001348 <HAL_UART_MspInit+0x6c>)
 800133a:	9305      	str	r3, [sp, #20]
 800133c:	f7ff f924 	bl	8000588 <HAL_GPIO_Init>
 8001340:	b006      	add	sp, #24
 8001342:	bd10      	pop	{r4, pc}
 8001344:	40013800 	.word	0x40013800
 8001348:	40010800 	.word	0x40010800

0800134c <NMI_Handler>:
 800134c:	4770      	bx	lr

0800134e <HardFault_Handler>:
 800134e:	e7fe      	b.n	800134e <HardFault_Handler>

08001350 <MemManage_Handler>:
 8001350:	e7fe      	b.n	8001350 <MemManage_Handler>

08001352 <BusFault_Handler>:
 8001352:	e7fe      	b.n	8001352 <BusFault_Handler>

08001354 <UsageFault_Handler>:
 8001354:	e7fe      	b.n	8001354 <UsageFault_Handler>

08001356 <SVC_Handler>:
 8001356:	4770      	bx	lr

08001358 <DebugMon_Handler>:
 8001358:	4770      	bx	lr

0800135a <PendSV_Handler>:
 800135a:	4770      	bx	lr

0800135c <SysTick_Handler>:
 800135c:	f7fe bf4a 	b.w	80001f4 <HAL_IncTick>

08001360 <SystemInit>:
 8001360:	4b0f      	ldr	r3, [pc, #60]	; (80013a0 <SystemInit+0x40>)
 8001362:	681a      	ldr	r2, [r3, #0]
 8001364:	f042 0201 	orr.w	r2, r2, #1
 8001368:	601a      	str	r2, [r3, #0]
 800136a:	6859      	ldr	r1, [r3, #4]
 800136c:	4a0d      	ldr	r2, [pc, #52]	; (80013a4 <SystemInit+0x44>)
 800136e:	400a      	ands	r2, r1
 8001370:	605a      	str	r2, [r3, #4]
 8001372:	681a      	ldr	r2, [r3, #0]
 8001374:	f022 7284 	bic.w	r2, r2, #17301504	; 0x1080000
 8001378:	f422 3280 	bic.w	r2, r2, #65536	; 0x10000
 800137c:	601a      	str	r2, [r3, #0]
 800137e:	681a      	ldr	r2, [r3, #0]
 8001380:	f422 2280 	bic.w	r2, r2, #262144	; 0x40000
 8001384:	601a      	str	r2, [r3, #0]
 8001386:	685a      	ldr	r2, [r3, #4]
 8001388:	f422 02fe 	bic.w	r2, r2, #8323072	; 0x7f0000
 800138c:	605a      	str	r2, [r3, #4]
 800138e:	f44f 021f 	mov.w	r2, #10420224	; 0x9f0000
 8001392:	609a      	str	r2, [r3, #8]
 8001394:	f04f 6200 	mov.w	r2, #134217728	; 0x8000000
 8001398:	4b03      	ldr	r3, [pc, #12]	; (80013a8 <SystemInit+0x48>)
 800139a:	609a      	str	r2, [r3, #8]
 800139c:	4770      	bx	lr
 800139e:	bf00      	nop
 80013a0:	40021000 	.word	0x40021000
 80013a4:	f8ff0000 	.word	0xf8ff0000
 80013a8:	e000ed00 	.word	0xe000ed00

080013ac <uart_receive>:
 80013ac:	b508      	push	{r3, lr}
 80013ae:	460a      	mov	r2, r1
 80013b0:	f44f 737a 	mov.w	r3, #1000	; 0x3e8
 80013b4:	4601      	mov	r1, r0
 80013b6:	4804      	ldr	r0, [pc, #16]	; (80013c8 <uart_receive+0x1c>)
 80013b8:	f7ff fd58 	bl	8000e6c <HAL_UART_Receive>
 80013bc:	2800      	cmp	r0, #0
 80013be:	bf14      	ite	ne
 80013c0:	20ff      	movne	r0, #255	; 0xff
 80013c2:	2000      	moveq	r0, #0
 80013c4:	bd08      	pop	{r3, pc}
 80013c6:	bf00      	nop
 80013c8:	20000058 	.word	0x20000058

080013cc <uart_receive_timeout>:
 80013cc:	b508      	push	{r3, lr}
 80013ce:	4613      	mov	r3, r2
 80013d0:	460a      	mov	r2, r1
 80013d2:	4601      	mov	r1, r0
 80013d4:	4803      	ldr	r0, [pc, #12]	; (80013e4 <uart_receive_timeout+0x18>)
 80013d6:	f7ff fd49 	bl	8000e6c <HAL_UART_Receive>
 80013da:	2800      	cmp	r0, #0
 80013dc:	bf14      	ite	ne
 80013de:	20ff      	movne	r0, #255	; 0xff
 80013e0:	2000      	moveq	r0, #0
 80013e2:	bd08      	pop	{r3, pc}
 80013e4:	20000058 	.word	0x20000058

080013e8 <uart_transmit_str>:
 80013e8:	b508      	push	{r3, lr}
 80013ea:	4601      	mov	r1, r0
 80013ec:	2300      	movs	r3, #0
 80013ee:	b29a      	uxth	r2, r3
 80013f0:	5c88      	ldrb	r0, [r1, r2]
 80013f2:	3301      	adds	r3, #1
 80013f4:	2800      	cmp	r0, #0
 80013f6:	d1fa      	bne.n	80013ee <uart_transmit_str+0x6>
 80013f8:	f44f 737a 	mov.w	r3, #1000	; 0x3e8
 80013fc:	4803      	ldr	r0, [pc, #12]	; (800140c <uart_transmit_str+0x24>)
 80013fe:	f7ff fcd9 	bl	8000db4 <HAL_UART_Transmit>
 8001402:	2800      	cmp	r0, #0
 8001404:	bf14      	ite	ne
 8001406:	20ff      	movne	r0, #255	; 0xff
 8001408:	2000      	moveq	r0, #0
 800140a:	bd08      	pop	{r3, pc}
 800140c:	20000058 	.word	0x20000058

08001410 <uart_transmit_ch>:
 8001410:	b507      	push	{r0, r1, r2, lr}
 8001412:	f88d 0007 	strb.w	r0, [sp, #7]
 8001416:	480b      	ldr	r0, [pc, #44]	; (8001444 <uart_transmit_ch+0x34>)
 8001418:	f7ff fdc7 	bl	8000faa <HAL_UART_GetState>
 800141c:	28a0      	cmp	r0, #160	; 0xa0
 800141e:	d102      	bne.n	8001426 <uart_transmit_ch+0x16>
 8001420:	4808      	ldr	r0, [pc, #32]	; (8001444 <uart_transmit_ch+0x34>)
 8001422:	f7ff fd82 	bl	8000f2a <HAL_UART_Abort>
 8001426:	f44f 737a 	mov.w	r3, #1000	; 0x3e8
 800142a:	2201      	movs	r2, #1
 800142c:	f10d 0107 	add.w	r1, sp, #7
 8001430:	4804      	ldr	r0, [pc, #16]	; (8001444 <uart_transmit_ch+0x34>)
 8001432:	f7ff fcbf 	bl	8000db4 <HAL_UART_Transmit>
 8001436:	2800      	cmp	r0, #0
 8001438:	bf14      	ite	ne
 800143a:	20ff      	movne	r0, #255	; 0xff
 800143c:	2000      	moveq	r0, #0
 800143e:	b003      	add	sp, #12
 8001440:	f85d fb04 	ldr.w	pc, [sp], #4
 8001444:	20000058 	.word	0x20000058

08001448 <xmodem_handle_packet>:
 8001448:	e92d 4ff0 	stmdb	sp!, {r4, r5, r6, r7, r8, r9, sl, fp, lr}
 800144c:	2801      	cmp	r0, #1
 800144e:	f2ad 4d0c 	subw	sp, sp, #1036	; 0x40c
 8001452:	d066      	beq.n	8001522 <xmodem_handle_packet+0xda>
 8001454:	2802      	cmp	r0, #2
 8001456:	bf0b      	itete	eq
 8001458:	f44f 6680 	moveq.w	r6, #1024	; 0x400
 800145c:	2600      	movne	r6, #0
 800145e:	2500      	moveq	r5, #0
 8001460:	25ff      	movne	r5, #255	; 0xff
 8001462:	1d34      	adds	r4, r6, #4
 8001464:	4621      	mov	r1, r4
 8001466:	a801      	add	r0, sp, #4
 8001468:	f7ff ffa0 	bl	80013ac <uart_receive>
 800146c:	2205      	movs	r2, #5
 800146e:	ab01      	add	r3, sp, #4
 8001470:	441c      	add	r4, r3
 8001472:	f814 8c02 	ldrb.w	r8, [r4, #-2]
 8001476:	f814 9c01 	ldrb.w	r9, [r4, #-1]
 800147a:	4c3f      	ldr	r4, [pc, #252]	; (8001578 <xmodem_handle_packet+0x130>)
 800147c:	4607      	mov	r7, r0
 800147e:	8823      	ldrh	r3, [r4, #0]
 8001480:	fbb3 f2f2 	udiv	r2, r3, r2
 8001484:	eb02 0282 	add.w	r2, r2, r2, lsl #2
 8001488:	1a9b      	subs	r3, r3, r2
 800148a:	b29b      	uxth	r3, r3
 800148c:	b9ab      	cbnz	r3, 80014ba <xmodem_handle_packet+0x72>
 800148e:	f8df a100 	ldr.w	sl, [pc, #256]	; 8001590 <xmodem_handle_packet+0x148>
 8001492:	2102      	movs	r1, #2
 8001494:	f89a 2000 	ldrb.w	r2, [sl]
 8001498:	4838      	ldr	r0, [pc, #224]	; (800157c <xmodem_handle_packet+0x134>)
 800149a:	f7ff f95d 	bl	8000758 <HAL_GPIO_WritePin>
 800149e:	f89a 2000 	ldrb.w	r2, [sl]
 80014a2:	2108      	movs	r1, #8
 80014a4:	f082 0201 	eor.w	r2, r2, #1
 80014a8:	4835      	ldr	r0, [pc, #212]	; (8001580 <xmodem_handle_packet+0x138>)
 80014aa:	f7ff f955 	bl	8000758 <HAL_GPIO_WritePin>
 80014ae:	f89a 3000 	ldrb.w	r3, [sl]
 80014b2:	f083 0301 	eor.w	r3, r3, #1
 80014b6:	f88a 3000 	strb.w	r3, [sl]
 80014ba:	8823      	ldrh	r3, [r4, #0]
 80014bc:	f10d 0206 	add.w	r2, sp, #6
 80014c0:	3301      	adds	r3, #1
 80014c2:	8023      	strh	r3, [r4, #0]
 80014c4:	4692      	mov	sl, r2
 80014c6:	2400      	movs	r4, #0
 80014c8:	f241 0021 	movw	r0, #4129	; 0x1021
 80014cc:	1cb1      	adds	r1, r6, #2
 80014ce:	ab01      	add	r3, sp, #4
 80014d0:	4419      	add	r1, r3
 80014d2:	428a      	cmp	r2, r1
 80014d4:	d128      	bne.n	8001528 <xmodem_handle_packet+0xe0>
 80014d6:	f8df b0bc 	ldr.w	fp, [pc, #188]	; 8001594 <xmodem_handle_packet+0x14c>
 80014da:	f89b 3000 	ldrb.w	r3, [fp]
 80014de:	b933      	cbnz	r3, 80014ee <xmodem_handle_packet+0xa6>
 80014e0:	4828      	ldr	r0, [pc, #160]	; (8001584 <xmodem_handle_packet+0x13c>)
 80014e2:	f7ff fd69 	bl	8000fb8 <flash_erase>
 80014e6:	bb88      	cbnz	r0, 800154c <xmodem_handle_packet+0x104>
 80014e8:	2301      	movs	r3, #1
 80014ea:	f88b 3000 	strb.w	r3, [fp]
 80014ee:	bba5      	cbnz	r5, 800155a <xmodem_handle_packet+0x112>
 80014f0:	bbaf      	cbnz	r7, 800155e <xmodem_handle_packet+0x116>
 80014f2:	4f25      	ldr	r7, [pc, #148]	; (8001588 <xmodem_handle_packet+0x140>)
 80014f4:	f89d 3004 	ldrb.w	r3, [sp, #4]
 80014f8:	783a      	ldrb	r2, [r7, #0]
 80014fa:	429a      	cmp	r2, r3
 80014fc:	d131      	bne.n	8001562 <xmodem_handle_packet+0x11a>
 80014fe:	f89d 3005 	ldrb.w	r3, [sp, #5]
 8001502:	4413      	add	r3, r2
 8001504:	2bff      	cmp	r3, #255	; 0xff
 8001506:	d12c      	bne.n	8001562 <xmodem_handle_packet+0x11a>
 8001508:	ea49 2808 	orr.w	r8, r9, r8, lsl #8
 800150c:	45a0      	cmp	r8, r4
 800150e:	d12a      	bne.n	8001566 <xmodem_handle_packet+0x11e>
 8001510:	4c1e      	ldr	r4, [pc, #120]	; (800158c <xmodem_handle_packet+0x144>)
 8001512:	08b2      	lsrs	r2, r6, #2
 8001514:	4651      	mov	r1, sl
 8001516:	6820      	ldr	r0, [r4, #0]
 8001518:	f7ff fd6c 	bl	8000ff4 <flash_write>
 800151c:	b328      	cbz	r0, 800156a <xmodem_handle_packet+0x122>
 800151e:	2506      	movs	r5, #6
 8001520:	e016      	b.n	8001550 <xmodem_handle_packet+0x108>
 8001522:	2680      	movs	r6, #128	; 0x80
 8001524:	2500      	movs	r5, #0
 8001526:	e79c      	b.n	8001462 <xmodem_handle_packet+0x1a>
 8001528:	f812 3b01 	ldrb.w	r3, [r2], #1
 800152c:	ea84 2403 	eor.w	r4, r4, r3, lsl #8
 8001530:	2308      	movs	r3, #8
 8001532:	f414 4f00 	tst.w	r4, #32768	; 0x8000
 8001536:	ea4f 0444 	mov.w	r4, r4, lsl #1
 800153a:	b2a4      	uxth	r4, r4
 800153c:	f103 33ff 	add.w	r3, r3, #4294967295
 8001540:	bf18      	it	ne
 8001542:	4044      	eorne	r4, r0
 8001544:	f013 03ff 	ands.w	r3, r3, #255	; 0xff
 8001548:	d1f3      	bne.n	8001532 <xmodem_handle_packet+0xea>
 800154a:	e7c2      	b.n	80014d2 <xmodem_handle_packet+0x8a>
 800154c:	f045 0506 	orr.w	r5, r5, #6
 8001550:	4628      	mov	r0, r5
 8001552:	f20d 4d0c 	addw	sp, sp, #1036	; 0x40c
 8001556:	e8bd 8ff0 	ldmia.w	sp!, {r4, r5, r6, r7, r8, r9, sl, fp, pc}
 800155a:	25ff      	movs	r5, #255	; 0xff
 800155c:	e7f8      	b.n	8001550 <xmodem_handle_packet+0x108>
 800155e:	2504      	movs	r5, #4
 8001560:	e7f6      	b.n	8001550 <xmodem_handle_packet+0x108>
 8001562:	2502      	movs	r5, #2
 8001564:	e7f4      	b.n	8001550 <xmodem_handle_packet+0x108>
 8001566:	2501      	movs	r5, #1
 8001568:	e7f2      	b.n	8001550 <xmodem_handle_packet+0x108>
 800156a:	783b      	ldrb	r3, [r7, #0]
 800156c:	3301      	adds	r3, #1
 800156e:	703b      	strb	r3, [r7, #0]
 8001570:	6823      	ldr	r3, [r4, #0]
 8001572:	441e      	add	r6, r3
 8001574:	6026      	str	r6, [r4, #0]
 8001576:	e7eb      	b.n	8001550 <xmodem_handle_packet+0x108>
 8001578:	2000002c 	.word	0x2000002c
 800157c:	40011000 	.word	0x40011000
 8001580:	40010c00 	.word	0x40010c00
 8001584:	08008000 	.word	0x08008000
 8001588:	2000000c 	.word	0x2000000c
 800158c:	20000030 	.word	0x20000030
 8001590:	2000002e 	.word	0x2000002e
 8001594:	2000002f 	.word	0x2000002f

08001598 <xmodem_error_handler.constprop.1>:
 8001598:	b508      	push	{r3, lr}
 800159a:	7803      	ldrb	r3, [r0, #0]
 800159c:	3301      	adds	r3, #1
 800159e:	b2db      	uxtb	r3, r3
 80015a0:	2b02      	cmp	r3, #2
 80015a2:	7003      	strb	r3, [r0, #0]
 80015a4:	d907      	bls.n	80015b6 <xmodem_error_handler.constprop.1+0x1e>
 80015a6:	2018      	movs	r0, #24
 80015a8:	f7ff ff32 	bl	8001410 <uart_transmit_ch>
 80015ac:	2018      	movs	r0, #24
 80015ae:	f7ff ff2f 	bl	8001410 <uart_transmit_ch>
 80015b2:	20ff      	movs	r0, #255	; 0xff
 80015b4:	bd08      	pop	{r3, pc}
 80015b6:	2015      	movs	r0, #21
 80015b8:	f7ff ff2a 	bl	8001410 <uart_transmit_ch>
 80015bc:	2000      	movs	r0, #0
 80015be:	bd08      	pop	{r3, pc}

080015c0 <xmodem_receive>:
 80015c0:	2300      	movs	r3, #0
 80015c2:	2201      	movs	r2, #1
 80015c4:	e92d 41f3 	stmdb	sp!, {r0, r1, r4, r5, r6, r7, r8, lr}
 80015c8:	4c36      	ldr	r4, [pc, #216]	; (80016a4 <xmodem_receive+0xe4>)
 80015ca:	f88d 3005 	strb.w	r3, [sp, #5]
 80015ce:	f88d 3006 	strb.w	r3, [sp, #6]
 80015d2:	7023      	strb	r3, [r4, #0]
 80015d4:	4b34      	ldr	r3, [pc, #208]	; (80016a8 <xmodem_receive+0xe8>)
 80015d6:	4d35      	ldr	r5, [pc, #212]	; (80016ac <xmodem_receive+0xec>)
 80015d8:	701a      	strb	r2, [r3, #0]
 80015da:	4a35      	ldr	r2, [pc, #212]	; (80016b0 <xmodem_receive+0xf0>)
 80015dc:	4b35      	ldr	r3, [pc, #212]	; (80016b4 <xmodem_receive+0xf4>)
 80015de:	4e36      	ldr	r6, [pc, #216]	; (80016b8 <xmodem_receive+0xf8>)
 80015e0:	4f36      	ldr	r7, [pc, #216]	; (80016bc <xmodem_receive+0xfc>)
 80015e2:	601a      	str	r2, [r3, #0]
 80015e4:	f89d 3005 	ldrb.w	r3, [sp, #5]
 80015e8:	b113      	cbz	r3, 80015f0 <xmodem_receive+0x30>
 80015ea:	b002      	add	sp, #8
 80015ec:	e8bd 81f0 	ldmia.w	sp!, {r4, r5, r6, r7, r8, pc}
 80015f0:	a802      	add	r0, sp, #8
 80015f2:	f800 3d01 	strb.w	r3, [r0, #-1]!
 80015f6:	f44f 72fa 	mov.w	r2, #500	; 0x1f4
 80015fa:	2101      	movs	r1, #1
 80015fc:	f7ff fee6 	bl	80013cc <uart_receive_timeout>
 8001600:	4680      	mov	r8, r0
 8001602:	b1a0      	cbz	r0, 800162e <xmodem_receive+0x6e>
 8001604:	7823      	ldrb	r3, [r4, #0]
 8001606:	b9f3      	cbnz	r3, 8001646 <xmodem_receive+0x86>
 8001608:	2043      	movs	r0, #67	; 0x43
 800160a:	f7ff ff01 	bl	8001410 <uart_transmit_ch>
 800160e:	782a      	ldrb	r2, [r5, #0]
 8001610:	2102      	movs	r1, #2
 8001612:	4630      	mov	r0, r6
 8001614:	f7ff f8a0 	bl	8000758 <HAL_GPIO_WritePin>
 8001618:	782a      	ldrb	r2, [r5, #0]
 800161a:	2108      	movs	r1, #8
 800161c:	f082 0201 	eor.w	r2, r2, #1
 8001620:	4638      	mov	r0, r7
 8001622:	f7ff f899 	bl	8000758 <HAL_GPIO_WritePin>
 8001626:	782b      	ldrb	r3, [r5, #0]
 8001628:	f083 0301 	eor.w	r3, r3, #1
 800162c:	702b      	strb	r3, [r5, #0]
 800162e:	f89d 0007 	ldrb.w	r0, [sp, #7]
 8001632:	2804      	cmp	r0, #4
 8001634:	d029      	beq.n	800168a <xmodem_receive+0xca>
 8001636:	d80f      	bhi.n	8001658 <xmodem_receive+0x98>
 8001638:	1e43      	subs	r3, r0, #1
 800163a:	2b01      	cmp	r3, #1
 800163c:	d912      	bls.n	8001664 <xmodem_receive+0xa4>
 800163e:	f1b8 0f00 	cmp.w	r8, #0
 8001642:	d1cf      	bne.n	80015e4 <xmodem_receive+0x24>
 8001644:	e01a      	b.n	800167c <xmodem_receive+0xbc>
 8001646:	2b01      	cmp	r3, #1
 8001648:	d1f1      	bne.n	800162e <xmodem_receive+0x6e>
 800164a:	f10d 0006 	add.w	r0, sp, #6
 800164e:	f7ff ffa3 	bl	8001598 <xmodem_error_handler.constprop.1>
 8001652:	f88d 0005 	strb.w	r0, [sp, #5]
 8001656:	e7ea      	b.n	800162e <xmodem_receive+0x6e>
 8001658:	2818      	cmp	r0, #24
 800165a:	d1f0      	bne.n	800163e <xmodem_receive+0x7e>
 800165c:	23ff      	movs	r3, #255	; 0xff
 800165e:	f88d 3005 	strb.w	r3, [sp, #5]
 8001662:	e7bf      	b.n	80015e4 <xmodem_receive+0x24>
 8001664:	f7ff fef0 	bl	8001448 <xmodem_handle_packet>
 8001668:	b918      	cbnz	r0, 8001672 <xmodem_receive+0xb2>
 800166a:	2006      	movs	r0, #6
 800166c:	f7ff fed0 	bl	8001410 <uart_transmit_ch>
 8001670:	e7b8      	b.n	80015e4 <xmodem_receive+0x24>
 8001672:	2806      	cmp	r0, #6
 8001674:	d102      	bne.n	800167c <xmodem_receive+0xbc>
 8001676:	2303      	movs	r3, #3
 8001678:	f88d 3006 	strb.w	r3, [sp, #6]
 800167c:	f10d 0006 	add.w	r0, sp, #6
 8001680:	f7ff ff8a 	bl	8001598 <xmodem_error_handler.constprop.1>
 8001684:	f88d 0005 	strb.w	r0, [sp, #5]
 8001688:	e7ac      	b.n	80015e4 <xmodem_receive+0x24>
 800168a:	2006      	movs	r0, #6
 800168c:	f7ff fec0 	bl	8001410 <uart_transmit_ch>
 8001690:	480b      	ldr	r0, [pc, #44]	; (80016c0 <xmodem_receive+0x100>)
 8001692:	f7ff fea9 	bl	80013e8 <uart_transmit_str>
 8001696:	480b      	ldr	r0, [pc, #44]	; (80016c4 <xmodem_receive+0x104>)
 8001698:	f7ff fea6 	bl	80013e8 <uart_transmit_str>
 800169c:	f7ff fcd8 	bl	8001050 <flash_jump_to_app>
 80016a0:	e7a0      	b.n	80015e4 <xmodem_receive+0x24>
 80016a2:	bf00      	nop
 80016a4:	2000002f 	.word	0x2000002f
 80016a8:	2000000c 	.word	0x2000000c
 80016ac:	2000002e 	.word	0x2000002e
 80016b0:	08008000 	.word	0x08008000
 80016b4:	20000030 	.word	0x20000030
 80016b8:	40011000 	.word	0x40011000
 80016bc:	40010c00 	.word	0x40010c00
 80016c0:	08001936 	.word	0x08001936
 80016c4:	08001890 	.word	0x08001890

080016c8 <Reset_Handler>:
 80016c8:	2100      	movs	r1, #0
 80016ca:	e003      	b.n	80016d4 <LoopCopyDataInit>

080016cc <CopyDataInit>:
 80016cc:	4b0b      	ldr	r3, [pc, #44]	; (80016fc <LoopFillZerobss+0x14>)
 80016ce:	585b      	ldr	r3, [r3, r1]
 80016d0:	5043      	str	r3, [r0, r1]
 80016d2:	3104      	adds	r1, #4

080016d4 <LoopCopyDataInit>:
 80016d4:	480a      	ldr	r0, [pc, #40]	; (8001700 <LoopFillZerobss+0x18>)
 80016d6:	4b0b      	ldr	r3, [pc, #44]	; (8001704 <LoopFillZerobss+0x1c>)
 80016d8:	1842      	adds	r2, r0, r1
 80016da:	429a      	cmp	r2, r3
 80016dc:	d3f6      	bcc.n	80016cc <CopyDataInit>
 80016de:	4a0a      	ldr	r2, [pc, #40]	; (8001708 <LoopFillZerobss+0x20>)
 80016e0:	e002      	b.n	80016e8 <LoopFillZerobss>

080016e2 <FillZerobss>:
 80016e2:	2300      	movs	r3, #0
 80016e4:	f842 3b04 	str.w	r3, [r2], #4

080016e8 <LoopFillZerobss>:
 80016e8:	4b08      	ldr	r3, [pc, #32]	; (800170c <LoopFillZerobss+0x24>)
 80016ea:	429a      	cmp	r2, r3
 80016ec:	d3f9      	bcc.n	80016e2 <FillZerobss>
 80016ee:	f7ff fe37 	bl	8001360 <SystemInit>
 80016f2:	f000 f80f 	bl	8001714 <__libc_init_array>
 80016f6:	f7ff fce5 	bl	80010c4 <main>
 80016fa:	4770      	bx	lr
 80016fc:	08001954 	.word	0x08001954
 8001700:	20000000 	.word	0x20000000
 8001704:	20000010 	.word	0x20000010
 8001708:	20000010 	.word	0x20000010
 800170c:	20000098 	.word	0x20000098

08001710 <ADC1_2_IRQHandler>:
 8001710:	e7fe      	b.n	8001710 <ADC1_2_IRQHandler>
	...

08001714 <__libc_init_array>:
 8001714:	b570      	push	{r4, r5, r6, lr}
 8001716:	2500      	movs	r5, #0
 8001718:	4e0c      	ldr	r6, [pc, #48]	; (800174c <__libc_init_array+0x38>)
 800171a:	4c0d      	ldr	r4, [pc, #52]	; (8001750 <__libc_init_array+0x3c>)
 800171c:	1ba4      	subs	r4, r4, r6
 800171e:	10a4      	asrs	r4, r4, #2
 8001720:	42a5      	cmp	r5, r4
 8001722:	d109      	bne.n	8001738 <__libc_init_array+0x24>
 8001724:	f000 f822 	bl	800176c <_init>
 8001728:	2500      	movs	r5, #0
 800172a:	4e0a      	ldr	r6, [pc, #40]	; (8001754 <__libc_init_array+0x40>)
 800172c:	4c0a      	ldr	r4, [pc, #40]	; (8001758 <__libc_init_array+0x44>)
 800172e:	1ba4      	subs	r4, r4, r6
 8001730:	10a4      	asrs	r4, r4, #2
 8001732:	42a5      	cmp	r5, r4
 8001734:	d105      	bne.n	8001742 <__libc_init_array+0x2e>
 8001736:	bd70      	pop	{r4, r5, r6, pc}
 8001738:	f856 3025 	ldr.w	r3, [r6, r5, lsl #2]
 800173c:	4798      	blx	r3
 800173e:	3501      	adds	r5, #1
 8001740:	e7ee      	b.n	8001720 <__libc_init_array+0xc>
 8001742:	f856 3025 	ldr.w	r3, [r6, r5, lsl #2]
 8001746:	4798      	blx	r3
 8001748:	3501      	adds	r5, #1
 800174a:	e7f2      	b.n	8001732 <__libc_init_array+0x1e>
 800174c:	0800194c 	.word	0x0800194c
 8001750:	0800194c 	.word	0x0800194c
 8001754:	0800194c 	.word	0x0800194c
 8001758:	08001950 	.word	0x08001950

0800175c <memset>:
 800175c:	4603      	mov	r3, r0
 800175e:	4402      	add	r2, r0
 8001760:	4293      	cmp	r3, r2
 8001762:	d100      	bne.n	8001766 <memset+0xa>
 8001764:	4770      	bx	lr
 8001766:	f803 1b01 	strb.w	r1, [r3], #1
 800176a:	e7f9      	b.n	8001760 <memset+0x4>

0800176c <_init>:
 800176c:	b5f8      	push	{r3, r4, r5, r6, r7, lr}
 800176e:	bf00      	nop
 8001770:	bcf8      	pop	{r3, r4, r5, r6, r7}
 8001772:	bc08      	pop	{r3}
 8001774:	469e      	mov	lr, r3
 8001776:	4770      	bx	lr

08001778 <_fini>:
 8001778:	b5f8      	push	{r3, r4, r5, r6, r7, lr}
 800177a:	bf00      	nop
 800177c:	bcf8      	pop	{r3, r4, r5, r6, r7}
 800177e:	bc08      	pop	{r3}
 8001780:	469e      	mov	lr, r3
 8001782:	4770      	bx	lr
